

Microchip MPLAB XC8 Assembler V2.40 build 20220703182018 
                                                                                               Wed May 24 23:22:38 2023

Microchip MPLAB XC8 C Compiler v2.40 (Free license) build 20220703182018 Og1 
     1                           	processor	16F887
     2                           	pagewidth 120
     3                           	opt	flic
     4                           	psect	idataBANK0,global,class=CODE,delta=2,noexec
     5                           	psect	cinit,global,class=CODE,merge=1,delta=2
     6                           	psect	bssCOMMON,global,class=COMMON,space=1,delta=1,noexec
     7                           	psect	bssBANK0,global,class=BANK0,space=1,delta=1,noexec
     8                           	psect	dataBANK0,global,class=BANK0,space=1,delta=1,noexec
     9                           	psect	bssBANK1,global,class=BANK1,space=1,delta=1,noexec
    10                           	psect	clrtext,global,class=CODE,delta=2
    11                           	psect	cstackBANK1,global,class=BANK1,space=1,delta=1,noexec
    12                           	psect	cstackCOMMON,global,class=COMMON,space=1,delta=1,noexec
    13                           	psect	cstackBANK0,global,class=BANK0,space=1,delta=1,noexec
    14                           	psect	maintext,global,class=CODE,split=1,delta=2
    15                           	psect	text1,local,class=CODE,merge=1,delta=2
    16                           	psect	text2,local,class=CODE,merge=1,delta=2
    17                           	psect	text3,local,class=CODE,merge=1,delta=2
    18                           	psect	text4,local,class=CODE,merge=1,delta=2
    19                           	psect	text5,local,class=CODE,merge=1,delta=2
    20                           	psect	text6,local,class=CODE,merge=1,delta=2,group=1
    21                           	psect	text7,local,class=CODE,merge=1,delta=2,group=1
    22                           	psect	text8,local,class=CODE,merge=1,delta=2
    23                           	psect	text9,local,class=CODE,merge=1,delta=2
    24                           	psect	text10,local,class=CODE,merge=1,delta=2
    25                           	psect	text11,local,class=CODE,merge=1,delta=2
    26                           	psect	text12,local,class=CODE,merge=1,delta=2
    27                           	psect	text13,local,class=CODE,merge=1,delta=2
    28                           	psect	text14,local,class=CODE,merge=1,delta=2,group=1
    29                           	psect	text15,local,class=CODE,merge=1,delta=2,group=1
    30                           	psect	text16,local,class=CODE,merge=1,delta=2,group=1
    31                           	psect	text17,local,class=CODE,merge=1,delta=2,group=1
    32                           	psect	text18,local,class=CODE,merge=1,delta=2
    33                           	psect	intentry,global,class=CODE,delta=2
    34                           	psect	text19,local,class=CODE,merge=1,delta=2
    35                           	psect	text20,local,class=CODE,merge=1,delta=2
    36                           	psect	text21,local,class=CODE,merge=1,delta=2
    37                           	psect	text22,local,class=CODE,merge=1,delta=2
    38                           	psect	text23,local,class=CODE,merge=1,delta=2
    39                           	psect	idloc,global,abs,ovrld,class=IDLOC,space=5,delta=2,noexec
    40                           	psect	config,global,abs,ovrld,class=CONFIG,space=4,delta=2,noexec
    41                           	dabs	1,0x7E,2
    42     0000                     
    43                           ; Version 2.40
    44                           ; Generated 17/11/2021 GMT
    45                           ; 
    46                           ; Copyright © 2021, Microchip Technology Inc. and its subsidiaries ("Microchip")
    47                           ; All rights reserved.
    48                           ; 
    49                           ; This software is developed by Microchip Technology Inc. and its subsidiaries ("Microch
      +                          ip").
    50                           ; 
    51                           ; Redistribution and use in source and binary forms, with or without modification, are
    52                           ; permitted provided that the following conditions are met:
    53                           ; 
    54                           ;     1. Redistributions of source code must retain the above copyright notice, this lis
      +                          t of
    55                           ;        conditions and the following disclaimer.
    56                           ; 
    57                           ;     2. Redistributions in binary form must reproduce the above copyright notice, this 
      +                          list
    58                           ;        of conditions and the following disclaimer in the documentation and/or other
    59                           ;        materials provided with the distribution. Publication is not required when
    60                           ;        this file is used in an embedded application.
    61                           ; 
    62                           ;     3. Microchip's name may not be used to endorse or promote products derived from th
      +                          is
    63                           ;        software without specific prior written permission.
    64                           ; 
    65                           ; THIS SOFTWARE IS PROVIDED BY MICROCHIP "AS IS" AND ANY EXPRESS OR IMPLIED WARRANTIES,
    66                           ; INCLUDING, BUT NOT LIMITED TO, THE IMPLIED WARRANTIES OF MERCHANTABILITY AND FITNESS F
      +                          OR
    67                           ; PURPOSE ARE DISCLAIMED.  IN NO EVENT SHALL MICROCHIP BE LIABLE FOR ANY DIRECT, INDIREC
      +                          T,
    68                           ; INCIDENTAL, SPECIAL, EXEMPLARY, OR CONSEQUENTIAL DAMAGES (INCLUDING BUT NOT LIMITED TO
    69                           ; PROCUREMENT OF SUBSTITUTE GOODS OR SERVICES; LOSS OF USE, DATA OR PROFITS; OR BUSINESS
    70                           ; INTERRUPTION) HOWSOEVER CAUSED AND ON ANY THEORY OF LIABILITY, WHETHER IN CONTRACT, ST
      +                          RICT
    71                           ; LIABILITY, OR TORT (INCLUDING NEGLIGENCE OR OTHERWISE) ARISING IN ANY WAY OUT OF THE U
      +                          SE OF
    72                           ; THIS SOFTWARE, EVEN IF ADVISED OF THE POSSIBILITY OF SUCH DAMAGE.
    73                           ; 
    74                           ; 
    75                           ; Code-generator required, PIC16F887 Definitions
    76                           ; 
    77                           ; SFR Addresses
    78     0000                     	;# 
    79     0001                     	;# 
    80     0002                     	;# 
    81     0003                     	;# 
    82     0004                     	;# 
    83     0005                     	;# 
    84     0006                     	;# 
    85     0007                     	;# 
    86     0008                     	;# 
    87     0009                     	;# 
    88     000A                     	;# 
    89     000B                     	;# 
    90     000C                     	;# 
    91     000D                     	;# 
    92     000E                     	;# 
    93     000E                     	;# 
    94     000F                     	;# 
    95     0010                     	;# 
    96     0011                     	;# 
    97     0012                     	;# 
    98     0013                     	;# 
    99     0014                     	;# 
   100     0015                     	;# 
   101     0015                     	;# 
   102     0016                     	;# 
   103     0017                     	;# 
   104     0018                     	;# 
   105     0019                     	;# 
   106     001A                     	;# 
   107     001B                     	;# 
   108     001B                     	;# 
   109     001C                     	;# 
   110     001D                     	;# 
   111     001E                     	;# 
   112     001F                     	;# 
   113     0081                     	;# 
   114     0085                     	;# 
   115     0086                     	;# 
   116     0087                     	;# 
   117     0088                     	;# 
   118     0089                     	;# 
   119     008C                     	;# 
   120     008D                     	;# 
   121     008E                     	;# 
   122     008F                     	;# 
   123     0090                     	;# 
   124     0091                     	;# 
   125     0092                     	;# 
   126     0093                     	;# 
   127     0093                     	;# 
   128     0093                     	;# 
   129     0094                     	;# 
   130     0095                     	;# 
   131     0096                     	;# 
   132     0097                     	;# 
   133     0098                     	;# 
   134     0099                     	;# 
   135     009A                     	;# 
   136     009B                     	;# 
   137     009C                     	;# 
   138     009D                     	;# 
   139     009E                     	;# 
   140     009F                     	;# 
   141     0105                     	;# 
   142     0107                     	;# 
   143     0108                     	;# 
   144     0109                     	;# 
   145     010C                     	;# 
   146     010C                     	;# 
   147     010D                     	;# 
   148     010E                     	;# 
   149     010F                     	;# 
   150     0185                     	;# 
   151     0187                     	;# 
   152     0188                     	;# 
   153     0189                     	;# 
   154     018C                     	;# 
   155     018D                     	;# 
   156     0000                     	;# 
   157     0001                     	;# 
   158     0002                     	;# 
   159     0003                     	;# 
   160     0004                     	;# 
   161     0005                     	;# 
   162     0006                     	;# 
   163     0007                     	;# 
   164     0008                     	;# 
   165     0009                     	;# 
   166     000A                     	;# 
   167     000B                     	;# 
   168     000C                     	;# 
   169     000D                     	;# 
   170     000E                     	;# 
   171     000E                     	;# 
   172     000F                     	;# 
   173     0010                     	;# 
   174     0011                     	;# 
   175     0012                     	;# 
   176     0013                     	;# 
   177     0014                     	;# 
   178     0015                     	;# 
   179     0015                     	;# 
   180     0016                     	;# 
   181     0017                     	;# 
   182     0018                     	;# 
   183     0019                     	;# 
   184     001A                     	;# 
   185     001B                     	;# 
   186     001B                     	;# 
   187     001C                     	;# 
   188     001D                     	;# 
   189     001E                     	;# 
   190     001F                     	;# 
   191     0081                     	;# 
   192     0085                     	;# 
   193     0086                     	;# 
   194     0087                     	;# 
   195     0088                     	;# 
   196     0089                     	;# 
   197     008C                     	;# 
   198     008D                     	;# 
   199     008E                     	;# 
   200     008F                     	;# 
   201     0090                     	;# 
   202     0091                     	;# 
   203     0092                     	;# 
   204     0093                     	;# 
   205     0093                     	;# 
   206     0093                     	;# 
   207     0094                     	;# 
   208     0095                     	;# 
   209     0096                     	;# 
   210     0097                     	;# 
   211     0098                     	;# 
   212     0099                     	;# 
   213     009A                     	;# 
   214     009B                     	;# 
   215     009C                     	;# 
   216     009D                     	;# 
   217     009E                     	;# 
   218     009F                     	;# 
   219     0105                     	;# 
   220     0107                     	;# 
   221     0108                     	;# 
   222     0109                     	;# 
   223     010C                     	;# 
   224     010C                     	;# 
   225     010D                     	;# 
   226     010E                     	;# 
   227     010F                     	;# 
   228     0185                     	;# 
   229     0187                     	;# 
   230     0188                     	;# 
   231     0189                     	;# 
   232     018C                     	;# 
   233     018D                     	;# 
   234     0000                     	;# 
   235     0001                     	;# 
   236     0002                     	;# 
   237     0003                     	;# 
   238     0004                     	;# 
   239     0005                     	;# 
   240     0006                     	;# 
   241     0007                     	;# 
   242     0008                     	;# 
   243     0009                     	;# 
   244     000A                     	;# 
   245     000B                     	;# 
   246     000C                     	;# 
   247     000D                     	;# 
   248     000E                     	;# 
   249     000E                     	;# 
   250     000F                     	;# 
   251     0010                     	;# 
   252     0011                     	;# 
   253     0012                     	;# 
   254     0013                     	;# 
   255     0014                     	;# 
   256     0015                     	;# 
   257     0015                     	;# 
   258     0016                     	;# 
   259     0017                     	;# 
   260     0018                     	;# 
   261     0019                     	;# 
   262     001A                     	;# 
   263     001B                     	;# 
   264     001B                     	;# 
   265     001C                     	;# 
   266     001D                     	;# 
   267     001E                     	;# 
   268     001F                     	;# 
   269     0081                     	;# 
   270     0085                     	;# 
   271     0086                     	;# 
   272     0087                     	;# 
   273     0088                     	;# 
   274     0089                     	;# 
   275     008C                     	;# 
   276     008D                     	;# 
   277     008E                     	;# 
   278     008F                     	;# 
   279     0090                     	;# 
   280     0091                     	;# 
   281     0092                     	;# 
   282     0093                     	;# 
   283     0093                     	;# 
   284     0093                     	;# 
   285     0094                     	;# 
   286     0095                     	;# 
   287     0096                     	;# 
   288     0097                     	;# 
   289     0098                     	;# 
   290     0099                     	;# 
   291     009A                     	;# 
   292     009B                     	;# 
   293     009C                     	;# 
   294     009D                     	;# 
   295     009E                     	;# 
   296     009F                     	;# 
   297     0105                     	;# 
   298     0107                     	;# 
   299     0108                     	;# 
   300     0109                     	;# 
   301     010C                     	;# 
   302     010C                     	;# 
   303     010D                     	;# 
   304     010E                     	;# 
   305     010F                     	;# 
   306     0185                     	;# 
   307     0187                     	;# 
   308     0188                     	;# 
   309     0189                     	;# 
   310     018C                     	;# 
   311     018D                     	;# 
   312                           
   313                           	psect	idataBANK0
   314     0801                     __pidataBANK0:
   315                           
   316                           ;initializer for _address3
   317     0801  3407               	retlw	7
   318                           
   319                           ;initializer for _address2
   320     0802  3406               	retlw	6
   321                           
   322                           ;initializer for _address1
   323     0803  3405               	retlw	5
   324                           
   325                           ;initializer for _address0
   326     0804  3404               	retlw	4
   327     0001                     _TMR0	set	1
   328     0012                     _T2CON	set	18
   329     001B                     _CCPR2L	set	27
   330     001D                     _CCP2CON	set	29
   331     0015                     _CCPR1L	set	21
   332     0017                     _CCP1CON	set	23
   333     000B                     _INTCONbits	set	11
   334     0005                     _PORTA	set	5
   335     0019                     _TXREG	set	25
   336     0018                     _RCSTAbits	set	24
   337     0007                     _PORTC	set	7
   338     0012                     _T2CONbits	set	18
   339     0009                     _PORTE	set	9
   340     0008                     _PORTD	set	8
   341     001A                     _RCREG	set	26
   342     000C                     _PIR1bits	set	12
   343     001E                     _ADRESH	set	30
   344     001F                     _ADCON0bits	set	31
   345     005A                     _T0IF	set	90
   346     0061                     _TMR2IF	set	97
   347     00C4                     _CREN	set	196
   348     0064                     _TXIF	set	100
   349     00C7                     _SPEN	set	199
   350     0034                     _RB4	set	52
   351     0033                     _RB3	set	51
   352     0032                     _RB2	set	50
   353     0031                     _RB1	set	49
   354     0030                     _RB0	set	48
   355     0058                     _RBIF	set	88
   356     0065                     _RCIF	set	101
   357     0066                     _ADIF	set	102
   358     0092                     _PR2	set	146
   359     0087                     _TRISC	set	135
   360     009F                     _ADCON1bits	set	159
   361     0085                     _TRISA	set	133
   362     0096                     _IOCB	set	150
   363     0095                     _WPUB	set	149
   364     0081                     _OPTION_REGbits	set	129
   365     0089                     _TRISE	set	137
   366     0088                     _TRISD	set	136
   367     0086                     _TRISB	set	134
   368     009A                     _SPBRGH	set	154
   369     0099                     _SPBRG	set	153
   370     008C                     _PIE1bits	set	140
   371     008F                     _OSCCONbits	set	143
   372     04C5                     _TXEN	set	1221
   373     04C4                     _SYNC	set	1220
   374     04C2                     _BRGH	set	1218
   375     010C                     _EEDAT	set	268
   376     010D                     _EEADR	set	269
   377     018D                     _EECON2	set	397
   378     018C                     _EECON1bits	set	396
   379     0188                     _ANSEL	set	392
   380     0189                     _ANSELH	set	393
   381     0C60                     _RD	set	3168
   382     0C61                     _WR	set	3169
   383     0C3B                     _BRG16	set	3131
   384                           
   385                           	psect	cinit
   386     0011                     start_initialization:	
   387                           ; #config settings
   388                           
   389     0011                     __initialization:
   390                           
   391                           ; Initialize objects allocated to BANK0
   392     0011  120A  158A  2001  120A  118A  	fcall	__pidataBANK0	;fetch initializer
   393     0016  00DD               	movwf	__pdataBANK0& (0+127)
   394     0017  120A  158A  2002  120A  118A  	fcall	__pidataBANK0+1	;fetch initializer
   395     001C  00DE               	movwf	(__pdataBANK0+1)& (0+127)
   396     001D  120A  158A  2003  120A  118A  	fcall	__pidataBANK0+2	;fetch initializer
   397     0022  00DF               	movwf	(__pdataBANK0+2)& (0+127)
   398     0023  120A  158A  2004  120A  118A  	fcall	__pidataBANK0+3	;fetch initializer
   399     0028  00E0               	movwf	(__pdataBANK0+3)& (0+127)
   400                           
   401                           ; Clear objects allocated to BANK1
   402     0029  1383               	bcf	3,7	;select IRP bank0
   403     002A  30D8               	movlw	low __pbssBANK1
   404     002B  0084               	movwf	4
   405     002C  30EC               	movlw	low (__pbssBANK1+20)
   406     002D  160A  118A  2607  120A  118A  	fcall	clear_ram0
   407                           
   408                           ; Clear objects allocated to BANK0
   409     0032  3053               	movlw	low __pbssBANK0
   410     0033  0084               	movwf	4
   411     0034  305D               	movlw	low (__pbssBANK0+10)
   412     0035  160A  118A  2607  120A  118A  	fcall	clear_ram0
   413                           
   414                           ; Clear objects allocated to COMMON
   415     003A  01FD               	clrf	__pbssCOMMON& (0+127)
   416     003B                     end_of_initialization:	
   417                           ;End of C runtime variable initialization code
   418                           
   419     003B                     __end_of__initialization:
   420     003B  0183               	clrf	3
   421     003C  120A  158A  2E2D   	ljmp	_main	;jump to C main() function
   422                           
   423                           	psect	bssCOMMON
   424     007D                     __pbssCOMMON:
   425     007D                     _val_potenciometro:
   426     007D                     	ds	1
   427                           
   428                           	psect	bssBANK0
   429     0053                     __pbssBANK0:
   430     0053                     _valor_mapeado0:
   431     0053                     	ds	2
   432     0055                     _selectSERVO:
   433     0055                     	ds	1
   434     0056                     _valorSLIDE:
   435     0056                     	ds	1
   436     0057                     _valorDIAL:
   437     0057                     	ds	1
   438     0058                     _bandera2:
   439     0058                     	ds	1
   440     0059                     _bandera1:
   441     0059                     	ds	1
   442     005A                     _activador_modo:
   443     005A                     	ds	1
   444     005B                     _modo_funcionamiento:
   445     005B                     	ds	1
   446     005C                     _status:
   447     005C                     	ds	1
   448                           
   449                           	psect	dataBANK0
   450     005D                     __pdataBANK0:
   451     005D                     _address3:
   452     005D                     	ds	1
   453     005E                     _address2:
   454     005E                     	ds	1
   455     005F                     _address1:
   456     005F                     	ds	1
   457     0060                     _address0:
   458     0060                     	ds	1
   459                           
   460                           	psect	bssBANK1
   461     00D8                     __pbssBANK1:
   462     00D8                     _preload:
   463     00D8                     	ds	2
   464     00DA                     _cont:
   465     00DA                     	ds	2
   466     00DC                     _valor_mapeado3:
   467     00DC                     	ds	2
   468     00DE                     _valor_mapeado2:
   469     00DE                     	ds	2
   470     00E0                     _valor_mapeado1:
   471     00E0                     	ds	2
   472     00E2                     _adc10:
   473     00E2                     	ds	2
   474     00E4                     _adc11:
   475     00E4                     	ds	2
   476     00E6                     _adc01:
   477     00E6                     	ds	2
   478     00E8                     _adc00:
   479     00E8                     	ds	2
   480     00EA                     _bandera3:
   481     00EA                     	ds	1
   482     00EB                     _lectura_escritura_ENABLE:
   483     00EB                     	ds	1
   484                           
   485                           	psect	clrtext
   486     1607                     clear_ram0:	
   487                           ;	Called with FSR containing the base address, and
   488                           ;	W with the last address+1
   489                           
   490     1607  0064               	clrwdt	;clear the watchdog before getting into this loop
   491     1608                     clrloop0:
   492     1608  0180               	clrf	0	;clear RAM location pointed to by FSR
   493     1609  0A84               	incf	4,f	;increment pointer
   494     160A  0604               	xorwf	4,w	;XOR with final address
   495     160B  1903               	btfsc	3,2	;have we reached the end yet?
   496     160C  3400               	retlw	0	;all done for this memory range, return
   497     160D  0604               	xorwf	4,w	;XOR again to restore value
   498     160E  2E08               	goto	clrloop0	;do the next byte
   499                           
   500                           	psect	cstackBANK1
   501     00A0                     __pcstackBANK1:
   502     00A0                     ?___fldiv:
   503     00A0                     ___fldiv@a:	
   504                           ; 4 bytes @ 0x0
   505                           
   506                           
   507                           ; 4 bytes @ 0x0
   508     00A0                     	ds	4
   509     00A4                     ___fldiv@b:
   510                           
   511                           ; 4 bytes @ 0x4
   512     00A4                     	ds	4
   513     00A8                     ??___fldiv:
   514                           
   515                           ; 1 bytes @ 0x8
   516     00A8                     	ds	5
   517     00AD                     ___fldiv@rem:
   518                           
   519                           ; 4 bytes @ 0xD
   520     00AD                     	ds	4
   521     00B1                     ___fldiv@sign:
   522                           
   523                           ; 1 bytes @ 0x11
   524     00B1                     	ds	1
   525     00B2                     ___fldiv@new_exp:
   526                           
   527                           ; 2 bytes @ 0x12
   528     00B2                     	ds	2
   529     00B4                     ___fldiv@grs:
   530                           
   531                           ; 4 bytes @ 0x14
   532     00B4                     	ds	4
   533     00B8                     ___fldiv@bexp:
   534                           
   535                           ; 1 bytes @ 0x18
   536     00B8                     	ds	1
   537     00B9                     ___fldiv@aexp:
   538                           
   539                           ; 1 bytes @ 0x19
   540     00B9                     	ds	1
   541     00BA                     ?___fltol:
   542     00BA                     ___fltol@f1:	
   543                           ; 4 bytes @ 0x1A
   544                           
   545                           
   546                           ; 4 bytes @ 0x1A
   547     00BA                     	ds	4
   548     00BE                     ??___fltol:
   549                           
   550                           ; 1 bytes @ 0x1E
   551     00BE                     	ds	4
   552     00C2                     ?_PWM_config:
   553     00C2                     ?_PWM_manual_config:	
   554                           ; 1 bytes @ 0x22
   555                           
   556     00C2                     PWM_config@canal:	
   557                           ; 1 bytes @ 0x22
   558                           
   559     00C2                     PWM_manual_config@periodo_ms:	
   560                           ; 2 bytes @ 0x22
   561                           
   562                           
   563                           ; 4 bytes @ 0x22
   564     00C2                     	ds	2
   565     00C4                     PWM_config@periodo_ms:
   566                           
   567                           ; 4 bytes @ 0x24
   568     00C4                     	ds	2
   569     00C6                     PWM_manual_config@TOSC:
   570                           
   571                           ; 4 bytes @ 0x26
   572     00C6                     	ds	2
   573     00C8                     _PWM_config$1144:
   574                           
   575                           ; 4 bytes @ 0x28
   576     00C8                     	ds	2
   577     00CA                     _PWM_manual_config$1145:
   578                           
   579                           ; 4 bytes @ 0x2A
   580     00CA                     	ds	2
   581     00CC                     PWM_config@valPR2:
   582                           
   583                           ; 2 bytes @ 0x2C
   584     00CC                     	ds	2
   585     00CE                     _PWM_manual_config$1146:
   586                           
   587                           ; 4 bytes @ 0x2E
   588     00CE                     	ds	4
   589     00D2                     _PWM_manual_config$1147:
   590                           
   591                           ; 4 bytes @ 0x32
   592     00D2                     	ds	4
   593     00D6                     ??_main:
   594                           
   595                           ; 1 bytes @ 0x36
   596     00D6                     	ds	2
   597                           
   598                           	psect	cstackCOMMON
   599     0070                     __pcstackCOMMON:
   600     0070                     ?_read_EEPROM:
   601     0070                     ?_write_EEPROM:	
   602                           ; 1 bytes @ 0x0
   603                           
   604     0070                     ?_setup:	
   605                           ; 1 bytes @ 0x0
   606                           
   607     0070                     ?_modo_automatico:	
   608                           ; 1 bytes @ 0x0
   609                           
   610     0070                     ?_modo_manual:	
   611                           ; 1 bytes @ 0x0
   612                           
   613     0070                     ?_initUART:	
   614                           ; 1 bytes @ 0x0
   615                           
   616     0070                     ?_modo_uart:	
   617                           ; 1 bytes @ 0x0
   618                           
   619     0070                     ?_isr:	
   620                           ; 1 bytes @ 0x0
   621                           
   622     0070                     ?_main:	
   623                           ; 1 bytes @ 0x0
   624                           
   625     0070                     ?i1_read_EEPROM:	
   626                           ; 1 bytes @ 0x0
   627                           
   628     0070                     ??i1_read_EEPROM:	
   629                           ; 1 bytes @ 0x0
   630                           
   631     0070                     ?i1___wmul:	
   632                           ; 1 bytes @ 0x0
   633                           
   634     0070                     write_EEPROM@data:	
   635                           ; 2 bytes @ 0x0
   636                           
   637     0070                     i1read_EEPROM@address:	
   638                           ; 1 bytes @ 0x0
   639                           
   640     0070                     i1___wmul@multiplier:	
   641                           ; 1 bytes @ 0x0
   642                           
   643                           
   644                           ; 2 bytes @ 0x0
   645     0070                     	ds	1
   646     0071                     ??_write_EEPROM:
   647     0071                     write_EEPROM@address:	
   648                           ; 1 bytes @ 0x1
   649                           
   650                           
   651                           ; 1 bytes @ 0x1
   652     0071                     	ds	1
   653     0072                     i1___wmul@multiplicand:
   654                           
   655                           ; 2 bytes @ 0x2
   656     0072                     	ds	2
   657     0074                     ??i1___wmul:
   658     0074                     i1___wmul@product:	
   659                           ; 1 bytes @ 0x4
   660                           
   661                           
   662                           ; 2 bytes @ 0x4
   663     0074                     	ds	2
   664     0076                     ?i1___awdiv:
   665     0076                     i1___awdiv@divisor:	
   666                           ; 2 bytes @ 0x6
   667                           
   668                           
   669                           ; 2 bytes @ 0x6
   670     0076                     	ds	2
   671     0078                     i1___awdiv@dividend:
   672                           
   673                           ; 2 bytes @ 0x8
   674     0078                     	ds	2
   675     007A                     ??i1___awdiv:
   676                           
   677                           ; 1 bytes @ 0xA
   678     007A                     	ds	1
   679     007B                     ??i1_map:
   680                           
   681                           ; 1 bytes @ 0xB
   682     007B                     	ds	2
   683                           
   684                           	psect	cstackBANK0
   685     0020                     __pcstackBANK0:
   686     0020                     i1___awdiv@counter:
   687                           
   688                           ; 1 bytes @ 0x0
   689     0020                     	ds	1
   690     0021                     i1___awdiv@sign:
   691                           
   692                           ; 1 bytes @ 0x1
   693     0021                     	ds	1
   694     0022                     i1___awdiv@quotient:
   695                           
   696                           ; 2 bytes @ 0x2
   697     0022                     	ds	2
   698     0024                     ?i1_map:
   699     0024                     i1map@rango_min:	
   700                           ; 1 bytes @ 0x4
   701                           
   702                           
   703                           ; 1 bytes @ 0x4
   704     0024                     	ds	1
   705     0025                     i1map@rango_max:
   706                           
   707                           ; 1 bytes @ 0x5
   708     0025                     	ds	1
   709     0026                     i1map@nuevo_min:
   710                           
   711                           ; 1 bytes @ 0x6
   712     0026                     	ds	1
   713     0027                     i1map@nuevo_max:
   714                           
   715                           ; 1 bytes @ 0x7
   716     0027                     	ds	1
   717     0028                     i1map@valor:
   718                           
   719                           ; 1 bytes @ 0x8
   720     0028                     	ds	1
   721     0029                     i1map@nuevo_valor:
   722                           
   723                           ; 1 bytes @ 0x9
   724     0029                     	ds	1
   725     002A                     ??_isr:
   726                           
   727                           ; 1 bytes @ 0xA
   728     002A                     	ds	4
   729     002E                     ??_read_EEPROM:
   730     002E                     ??_setup:	
   731                           ; 1 bytes @ 0xE
   732                           
   733     002E                     ??_initUART:	
   734                           ; 1 bytes @ 0xE
   735                           
   736     002E                     ?_PWM_manual:	
   737                           ; 1 bytes @ 0xE
   738                           
   739     002E                     ?_PWM_duty:	
   740                           ; 1 bytes @ 0xE
   741                           
   742     002E                     ?__Umul8_16:	
   743                           ; 1 bytes @ 0xE
   744                           
   745     002E                     ?___wmul:	
   746                           ; 2 bytes @ 0xE
   747                           
   748     002E                     read_EEPROM@address:	
   749                           ; 2 bytes @ 0xE
   750                           
   751     002E                     __Umul8_16@multiplicand:	
   752                           ; 1 bytes @ 0xE
   753                           
   754     002E                     PWM_duty@canal:	
   755                           ; 1 bytes @ 0xE
   756                           
   757     002E                     PWM_manual@limite_pot:	
   758                           ; 2 bytes @ 0xE
   759                           
   760     002E                     ___wmul@multiplier:	
   761                           ; 2 bytes @ 0xE
   762                           
   763                           
   764                           ; 2 bytes @ 0xE
   765     002E                     	ds	2
   766     0030                     ??__Umul8_16:
   767     0030                     PWM_duty@DutyCycle:	
   768                           ; 1 bytes @ 0x10
   769                           
   770     0030                     PWM_manual@puerto:	
   771                           ; 2 bytes @ 0x10
   772                           
   773     0030                     ___wmul@multiplicand:	
   774                           ; 2 bytes @ 0x10
   775                           
   776                           
   777                           ; 2 bytes @ 0x10
   778     0030                     	ds	2
   779     0032                     ??_PWM_manual:
   780     0032                     ??_PWM_duty:	
   781                           ; 1 bytes @ 0x12
   782                           
   783     0032                     ??___wmul:	
   784                           ; 1 bytes @ 0x12
   785                           
   786     0032                     ___wmul@product:	
   787                           ; 1 bytes @ 0x12
   788                           
   789     0032                     __Umul8_16@product:	
   790                           ; 2 bytes @ 0x12
   791                           
   792                           
   793                           ; 2 bytes @ 0x12
   794     0032                     	ds	2
   795     0034                     ??_modo_automatico:
   796     0034                     ??_modo_uart:	
   797                           ; 1 bytes @ 0x14
   798                           
   799     0034                     ?___awdiv:	
   800                           ; 1 bytes @ 0x14
   801                           
   802     0034                     ___awdiv@divisor:	
   803                           ; 2 bytes @ 0x14
   804                           
   805     0034                     __Umul8_16@word_mpld:	
   806                           ; 2 bytes @ 0x14
   807                           
   808                           
   809                           ; 2 bytes @ 0x14
   810     0034                     	ds	2
   811     0036                     __Umul8_16@multiplier:
   812     0036                     ___awdiv@dividend:	
   813                           ; 1 bytes @ 0x16
   814                           
   815                           
   816                           ; 2 bytes @ 0x16
   817     0036                     	ds	1
   818     0037                     ?___flmul:
   819     0037                     ___flmul@b:	
   820                           ; 4 bytes @ 0x17
   821                           
   822                           
   823                           ; 4 bytes @ 0x17
   824     0037                     	ds	1
   825     0038                     ??___awdiv:
   826                           
   827                           ; 1 bytes @ 0x18
   828     0038                     	ds	1
   829     0039                     ___awdiv@counter:
   830                           
   831                           ; 1 bytes @ 0x19
   832     0039                     	ds	1
   833     003A                     ___awdiv@sign:
   834                           
   835                           ; 1 bytes @ 0x1A
   836     003A                     	ds	1
   837     003B                     ___awdiv@quotient:
   838     003B                     ___flmul@a:	
   839                           ; 2 bytes @ 0x1B
   840                           
   841                           
   842                           ; 4 bytes @ 0x1B
   843     003B                     	ds	2
   844     003D                     ?_map:
   845     003D                     map@rango_min:	
   846                           ; 1 bytes @ 0x1D
   847                           
   848                           
   849                           ; 1 bytes @ 0x1D
   850     003D                     	ds	1
   851     003E                     map@rango_max:
   852                           
   853                           ; 1 bytes @ 0x1E
   854     003E                     	ds	1
   855     003F                     ??___flmul:
   856     003F                     map@nuevo_min:	
   857                           ; 1 bytes @ 0x1F
   858                           
   859                           
   860                           ; 1 bytes @ 0x1F
   861     003F                     	ds	1
   862     0040                     map@nuevo_max:
   863                           
   864                           ; 1 bytes @ 0x20
   865     0040                     	ds	1
   866     0041                     ??_map:
   867                           
   868                           ; 1 bytes @ 0x21
   869     0041                     	ds	2
   870     0043                     map@valor:
   871                           
   872                           ; 1 bytes @ 0x23
   873     0043                     	ds	1
   874     0044                     map@nuevo_valor:
   875     0044                     ___flmul@sign:	
   876                           ; 1 bytes @ 0x24
   877                           
   878                           
   879                           ; 1 bytes @ 0x24
   880     0044                     	ds	1
   881     0045                     ??_modo_manual:
   882     0045                     ___flmul@grs:	
   883                           ; 1 bytes @ 0x25
   884                           
   885                           
   886                           ; 4 bytes @ 0x25
   887     0045                     	ds	4
   888     0049                     ___flmul@aexp:
   889                           
   890                           ; 1 bytes @ 0x29
   891     0049                     	ds	1
   892     004A                     ___flmul@bexp:
   893                           
   894                           ; 1 bytes @ 0x2A
   895     004A                     	ds	1
   896     004B                     ___flmul@prod:
   897                           
   898                           ; 4 bytes @ 0x2B
   899     004B                     	ds	4
   900     004F                     ___flmul@temp:
   901                           
   902                           ; 2 bytes @ 0x2F
   903     004F                     	ds	2
   904     0051                     ___fltol@sign1:
   905                           
   906                           ; 1 bytes @ 0x31
   907     0051                     	ds	1
   908     0052                     ___fltol@exp1:
   909                           
   910                           ; 1 bytes @ 0x32
   911     0052                     	ds	1
   912     0053                     ??_PWM_config:
   913     0053                     ??_PWM_manual_config:	
   914                           ; 1 bytes @ 0x33
   915                           
   916                           
   917                           	psect	maintext
   918     0E2D                     __pmaintext:	
   919                           ; 1 bytes @ 0x33
   920 ;;
   921 ;;Main: autosize = 0, tempsize = 2, incstack = 0, save=0
   922 ;;
   923 ;; *************** function _main *****************
   924 ;; Defined at:
   925 ;;		line 279 in file "Proyecto_Micros.c"
   926 ;; Parameters:    Size  Location     Type
   927 ;;		None
   928 ;; Auto vars:     Size  Location     Type
   929 ;;		None
   930 ;; Return value:  Size  Location     Type
   931 ;;                  1    wreg      void 
   932 ;; Registers used:
   933 ;;		wreg, status,2, status,0, btemp+1, pclath, cstack
   934 ;; Tracked objects:
   935 ;;		On entry : B00/0
   936 ;;		On exit  : 0/0
   937 ;;		Unchanged: 0/0
   938 ;; Data sizes:     COMMON   BANK0   BANK1   BANK3   BANK2
   939 ;;      Params:         0       0       0       0       0
   940 ;;      Locals:         0       0       0       0       0
   941 ;;      Temps:          0       0       2       0       0
   942 ;;      Totals:         0       0       2       0       0
   943 ;;Total ram usage:        2 bytes
   944 ;; Hardware stack levels required when called: 6
   945 ;; This function calls:
   946 ;;		_PWM_config
   947 ;;		_PWM_manual_config
   948 ;;		_initUART
   949 ;;		_modo_automatico
   950 ;;		_modo_manual
   951 ;;		_modo_uart
   952 ;;		_read_EEPROM
   953 ;;		_setup
   954 ;; This function is called by:
   955 ;;		Startup code after reset
   956 ;; This function uses a non-reentrant model
   957 ;;
   958                           
   959     0E2D                     _main:	
   960                           ;psect for function _main
   961                           
   962     0E2D                     l3356:	
   963                           ;incstack = 0
   964                           ; Regs used in _main: [wreg+status,2+status,0+btemp+1+pclath+cstack]
   965                           
   966                           
   967                           ;Proyecto_Micros.c: 281:     setup();
   968     0E2D  160A  118A  277B  120A  158A  	fcall	_setup
   969     0E32                     l3358:
   970                           
   971                           ;Proyecto_Micros.c: 284:     {;Proyecto_Micros.c: 285:         if (modo_funcionamiento =
      +                          = 0){
   972     0E32  1283               	bcf	3,5	;RP0=0, select bank0
   973     0E33  1303               	bcf	3,6	;RP1=0, select bank0
   974     0E34  085B               	movf	_modo_funcionamiento,w
   975     0E35  1D03               	btfss	3,2
   976     0E36  2E38               	goto	u4341
   977     0E37  2E39               	goto	u4340
   978     0E38                     u4341:
   979     0E38  2EC7               	goto	l3384
   980     0E39                     u4340:
   981     0E39                     l3360:
   982                           
   983                           ;Proyecto_Micros.c: 286:             PORTE = 0b111;
   984     0E39  3007               	movlw	7
   985     0E3A  0089               	movwf	9	;volatile
   986     0E3B                     l3362:
   987                           
   988                           ;Proyecto_Micros.c: 287:             if (activador_modo == 1){
   989     0E3B  035A               	decf	_activador_modo,w
   990     0E3C  1D03               	btfss	3,2
   991     0E3D  2E3F               	goto	u4351
   992     0E3E  2E40               	goto	u4350
   993     0E3F                     u4351:
   994     0E3F  2E32               	goto	l3358
   995     0E40                     u4350:
   996     0E40                     l3364:
   997                           
   998                           ;Proyecto_Micros.c: 289:                 ADCON0bits.ADON = 0;
   999     0E40  101F               	bcf	31,0	;volatile
  1000     0E41                     l3366:
  1001                           
  1002                           ;Proyecto_Micros.c: 290:                 valor_mapeado0 = read_EEPROM(address0);
  1003     0E41  0860               	movf	_address0,w
  1004     0E42  160A  118A  2659  120A  158A  	fcall	_read_EEPROM
  1005     0E47  1683               	bsf	3,5	;RP0=1, select bank1
  1006     0E48  1303               	bcf	3,6	;RP1=0, select bank1
  1007     0E49  00D6               	movwf	??_main^(0+128)
  1008     0E4A  01D7               	clrf	(??_main^(0+128)+1)
  1009     0E4B  0856               	movf	??_main^(0+128),w
  1010     0E4C  1283               	bcf	3,5	;RP0=0, select bank0
  1011     0E4D  1303               	bcf	3,6	;RP1=0, select bank0
  1012     0E4E  00D3               	movwf	_valor_mapeado0
  1013     0E4F  1683               	bsf	3,5	;RP0=1, select bank1
  1014     0E50  1303               	bcf	3,6	;RP1=0, select bank1
  1015     0E51  0857               	movf	(??_main+1)^(0+128),w
  1016     0E52  1283               	bcf	3,5	;RP0=0, select bank0
  1017     0E53  1303               	bcf	3,6	;RP1=0, select bank0
  1018     0E54  00D4               	movwf	_valor_mapeado0+1
  1019                           
  1020                           ;Proyecto_Micros.c: 291:                 valor_mapeado1 = read_EEPROM(address1);
  1021     0E55  085F               	movf	_address1,w
  1022     0E56  160A  118A  2659  120A  158A  	fcall	_read_EEPROM
  1023     0E5B  1683               	bsf	3,5	;RP0=1, select bank1
  1024     0E5C  1303               	bcf	3,6	;RP1=0, select bank1
  1025     0E5D  00D6               	movwf	??_main^(0+128)
  1026     0E5E  01D7               	clrf	(??_main^(0+128)+1)
  1027     0E5F  0856               	movf	??_main^(0+128),w
  1028     0E60  00E0               	movwf	_valor_mapeado1^(0+128)
  1029     0E61  0857               	movf	(??_main+1)^(0+128),w
  1030     0E62  00E1               	movwf	(_valor_mapeado1+1)^(0+128)
  1031                           
  1032                           ;Proyecto_Micros.c: 292:                 valor_mapeado2 = read_EEPROM(address2);
  1033     0E63  1283               	bcf	3,5	;RP0=0, select bank0
  1034     0E64  1303               	bcf	3,6	;RP1=0, select bank0
  1035     0E65  085E               	movf	_address2,w
  1036     0E66  160A  118A  2659  120A  158A  	fcall	_read_EEPROM
  1037     0E6B  1683               	bsf	3,5	;RP0=1, select bank1
  1038     0E6C  1303               	bcf	3,6	;RP1=0, select bank1
  1039     0E6D  00D6               	movwf	??_main^(0+128)
  1040     0E6E  01D7               	clrf	(??_main^(0+128)+1)
  1041     0E6F  0856               	movf	??_main^(0+128),w
  1042     0E70  00DE               	movwf	_valor_mapeado2^(0+128)
  1043     0E71  0857               	movf	(??_main+1)^(0+128),w
  1044     0E72  00DF               	movwf	(_valor_mapeado2+1)^(0+128)
  1045                           
  1046                           ;Proyecto_Micros.c: 293:                 valor_mapeado3 = read_EEPROM(address3);
  1047     0E73  1283               	bcf	3,5	;RP0=0, select bank0
  1048     0E74  1303               	bcf	3,6	;RP1=0, select bank0
  1049     0E75  085D               	movf	_address3,w
  1050     0E76  160A  118A  2659  120A  158A  	fcall	_read_EEPROM
  1051     0E7B  1683               	bsf	3,5	;RP0=1, select bank1
  1052     0E7C  1303               	bcf	3,6	;RP1=0, select bank1
  1053     0E7D  00D6               	movwf	??_main^(0+128)
  1054     0E7E  01D7               	clrf	(??_main^(0+128)+1)
  1055     0E7F  0856               	movf	??_main^(0+128),w
  1056     0E80  00DC               	movwf	_valor_mapeado3^(0+128)
  1057     0E81  0857               	movf	(??_main+1)^(0+128),w
  1058     0E82  00DD               	movwf	(_valor_mapeado3+1)^(0+128)
  1059     0E83                     l3368:
  1060                           
  1061                           ;Proyecto_Micros.c: 295:                 PWM_config(1, 20);
  1062     0E83  3001               	movlw	1
  1063     0E84  00C2               	movwf	PWM_config@canal^(0+128)
  1064     0E85  3000               	movlw	0
  1065     0E86  00C3               	movwf	(PWM_config@canal^(0+128)+1)
  1066     0E87  3041               	movlw	65
  1067     0E88  00C7               	movwf	(PWM_config@periodo_ms+3)^(0+128)
  1068     0E89  30A0               	movlw	160
  1069     0E8A  00C6               	movwf	(PWM_config@periodo_ms+2)^(0+128)
  1070     0E8B  3000               	movlw	0
  1071     0E8C  00C5               	movwf	(PWM_config@periodo_ms+1)^(0+128)
  1072     0E8D  3000               	movlw	0
  1073     0E8E  00C4               	movwf	PWM_config@periodo_ms^(0+128)
  1074     0E8F  120A  158A  21DE  120A  158A  	fcall	_PWM_config
  1075     0E94                     l3370:
  1076                           
  1077                           ;Proyecto_Micros.c: 296:                 PWM_config(2, 20);
  1078     0E94  3002               	movlw	2
  1079     0E95  1683               	bsf	3,5	;RP0=1, select bank1
  1080     0E96  1303               	bcf	3,6	;RP1=0, select bank1
  1081     0E97  00C2               	movwf	PWM_config@canal^(0+128)
  1082     0E98  3000               	movlw	0
  1083     0E99  00C3               	movwf	(PWM_config@canal^(0+128)+1)
  1084     0E9A  3041               	movlw	65
  1085     0E9B  00C7               	movwf	(PWM_config@periodo_ms+3)^(0+128)
  1086     0E9C  30A0               	movlw	160
  1087     0E9D  00C6               	movwf	(PWM_config@periodo_ms+2)^(0+128)
  1088     0E9E  3000               	movlw	0
  1089     0E9F  00C5               	movwf	(PWM_config@periodo_ms+1)^(0+128)
  1090     0EA0  3000               	movlw	0
  1091     0EA1  00C4               	movwf	PWM_config@periodo_ms^(0+128)
  1092     0EA2  120A  158A  21DE  120A  158A  	fcall	_PWM_config
  1093     0EA7                     l3372:
  1094                           
  1095                           ;Proyecto_Micros.c: 297:                 PWM_manual_config(15);
  1096     0EA7  3041               	movlw	65
  1097     0EA8  1683               	bsf	3,5	;RP0=1, select bank1
  1098     0EA9  1303               	bcf	3,6	;RP1=0, select bank1
  1099     0EAA  00C5               	movwf	(PWM_manual_config@periodo_ms+3)^(0+128)
  1100     0EAB  3070               	movlw	112
  1101     0EAC  00C4               	movwf	(PWM_manual_config@periodo_ms+2)^(0+128)
  1102     0EAD  3000               	movlw	0
  1103     0EAE  00C3               	movwf	(PWM_manual_config@periodo_ms+1)^(0+128)
  1104     0EAF  3000               	movlw	0
  1105     0EB0  00C2               	movwf	PWM_manual_config@periodo_ms^(0+128)
  1106     0EB1  120A  158A  236C  120A  158A  	fcall	_PWM_manual_config
  1107     0EB6                     l3374:
  1108                           
  1109                           ;Proyecto_Micros.c: 299:                 modo_automatico();
  1110     0EB6  120A  158A  20D7  120A  158A  	fcall	_modo_automatico
  1111     0EBB                     l3376:
  1112                           
  1113                           ;Proyecto_Micros.c: 302:                 T2CONbits.TMR2ON = 0;
  1114     0EBB  1283               	bcf	3,5	;RP0=0, select bank0
  1115     0EBC  1303               	bcf	3,6	;RP1=0, select bank0
  1116     0EBD  1112               	bcf	18,2	;volatile
  1117     0EBE                     l3378:
  1118                           
  1119                           ;Proyecto_Micros.c: 303:                 OSCCONbits.IRCF = 0b111;
  1120     0EBE  3070               	movlw	112
  1121     0EBF  1683               	bsf	3,5	;RP0=1, select bank1
  1122     0EC0  1303               	bcf	3,6	;RP1=0, select bank1
  1123     0EC1  048F               	iorwf	15,f	;volatile
  1124     0EC2                     l3380:
  1125                           
  1126                           ;Proyecto_Micros.c: 304:                 PORTC = 0;
  1127     0EC2  1283               	bcf	3,5	;RP0=0, select bank0
  1128     0EC3  1303               	bcf	3,6	;RP1=0, select bank0
  1129     0EC4  0187               	clrf	7	;volatile
  1130     0EC5                     l3382:
  1131                           
  1132                           ;Proyecto_Micros.c: 305:                 PORTD = 0;
  1133     0EC5  0188               	clrf	8	;volatile
  1134     0EC6  2E32               	goto	l3358
  1135     0EC7                     l3384:
  1136     0EC7  035B               	decf	_modo_funcionamiento,w
  1137     0EC8  1D03               	btfss	3,2
  1138     0EC9  2ECB               	goto	u4361
  1139     0ECA  2ECC               	goto	u4360
  1140     0ECB                     u4361:
  1141     0ECB  2F17               	goto	l3406
  1142     0ECC                     u4360:
  1143     0ECC                     l3386:
  1144                           
  1145                           ;Proyecto_Micros.c: 309:             PORTE = 0b001;
  1146     0ECC  3001               	movlw	1
  1147     0ECD  0089               	movwf	9	;volatile
  1148     0ECE                     l3388:
  1149                           
  1150                           ;Proyecto_Micros.c: 310:             if (activador_modo == 1){
  1151     0ECE  035A               	decf	_activador_modo,w
  1152     0ECF  1D03               	btfss	3,2
  1153     0ED0  2ED2               	goto	u4371
  1154     0ED1  2ED3               	goto	u4370
  1155     0ED2                     u4371:
  1156     0ED2  2E32               	goto	l3358
  1157     0ED3                     u4370:
  1158     0ED3                     l3390:
  1159                           
  1160                           ;Proyecto_Micros.c: 312:                 ADCON0bits.ADON = 1;
  1161     0ED3  141F               	bsf	31,0	;volatile
  1162     0ED4                     l3392:
  1163                           
  1164                           ;Proyecto_Micros.c: 313:                 PWM_config(1, 20);
  1165     0ED4  3001               	movlw	1
  1166     0ED5  1683               	bsf	3,5	;RP0=1, select bank1
  1167     0ED6  1303               	bcf	3,6	;RP1=0, select bank1
  1168     0ED7  00C2               	movwf	PWM_config@canal^(0+128)
  1169     0ED8  3000               	movlw	0
  1170     0ED9  00C3               	movwf	(PWM_config@canal^(0+128)+1)
  1171     0EDA  3041               	movlw	65
  1172     0EDB  00C7               	movwf	(PWM_config@periodo_ms+3)^(0+128)
  1173     0EDC  30A0               	movlw	160
  1174     0EDD  00C6               	movwf	(PWM_config@periodo_ms+2)^(0+128)
  1175     0EDE  3000               	movlw	0
  1176     0EDF  00C5               	movwf	(PWM_config@periodo_ms+1)^(0+128)
  1177     0EE0  3000               	movlw	0
  1178     0EE1  00C4               	movwf	PWM_config@periodo_ms^(0+128)
  1179     0EE2  120A  158A  21DE  120A  158A  	fcall	_PWM_config
  1180                           
  1181                           ;Proyecto_Micros.c: 314:                 PWM_config(2, 20);
  1182     0EE7  3002               	movlw	2
  1183     0EE8  1683               	bsf	3,5	;RP0=1, select bank1
  1184     0EE9  1303               	bcf	3,6	;RP1=0, select bank1
  1185     0EEA  00C2               	movwf	PWM_config@canal^(0+128)
  1186     0EEB  3000               	movlw	0
  1187     0EEC  00C3               	movwf	(PWM_config@canal^(0+128)+1)
  1188     0EED  3041               	movlw	65
  1189     0EEE  00C7               	movwf	(PWM_config@periodo_ms+3)^(0+128)
  1190     0EEF  30A0               	movlw	160
  1191     0EF0  00C6               	movwf	(PWM_config@periodo_ms+2)^(0+128)
  1192     0EF1  3000               	movlw	0
  1193     0EF2  00C5               	movwf	(PWM_config@periodo_ms+1)^(0+128)
  1194     0EF3  3000               	movlw	0
  1195     0EF4  00C4               	movwf	PWM_config@periodo_ms^(0+128)
  1196     0EF5  120A  158A  21DE  120A  158A  	fcall	_PWM_config
  1197                           
  1198                           ;Proyecto_Micros.c: 315:                 PWM_manual_config(15);
  1199     0EFA  3041               	movlw	65
  1200     0EFB  1683               	bsf	3,5	;RP0=1, select bank1
  1201     0EFC  1303               	bcf	3,6	;RP1=0, select bank1
  1202     0EFD  00C5               	movwf	(PWM_manual_config@periodo_ms+3)^(0+128)
  1203     0EFE  3070               	movlw	112
  1204     0EFF  00C4               	movwf	(PWM_manual_config@periodo_ms+2)^(0+128)
  1205     0F00  3000               	movlw	0
  1206     0F01  00C3               	movwf	(PWM_manual_config@periodo_ms+1)^(0+128)
  1207     0F02  3000               	movlw	0
  1208     0F03  00C2               	movwf	PWM_manual_config@periodo_ms^(0+128)
  1209     0F04  120A  158A  236C  120A  158A  	fcall	_PWM_manual_config
  1210     0F09                     l3394:
  1211                           
  1212                           ;Proyecto_Micros.c: 317:                 modo_manual();
  1213     0F09  120A  158A  2289  120A  158A  	fcall	_modo_manual
  1214     0F0E                     l3396:
  1215                           
  1216                           ;Proyecto_Micros.c: 320:                 ADCON0bits.ADON = 0;
  1217     0F0E  1283               	bcf	3,5	;RP0=0, select bank0
  1218     0F0F  1303               	bcf	3,6	;RP1=0, select bank0
  1219     0F10  101F               	bcf	31,0	;volatile
  1220     0F11                     l3398:
  1221                           
  1222                           ;Proyecto_Micros.c: 321:                 T2CONbits.TMR2ON = 0;
  1223     0F11  1112               	bcf	18,2	;volatile
  1224     0F12                     l3400:
  1225                           
  1226                           ;Proyecto_Micros.c: 322:                 OSCCONbits.IRCF = 0b111;
  1227     0F12  3070               	movlw	112
  1228     0F13  1683               	bsf	3,5	;RP0=1, select bank1
  1229     0F14  1303               	bcf	3,6	;RP1=0, select bank1
  1230     0F15  048F               	iorwf	15,f	;volatile
  1231     0F16  2EC2               	goto	l3380
  1232     0F17                     l3406:
  1233     0F17  3002               	movlw	2
  1234     0F18  065B               	xorwf	_modo_funcionamiento,w
  1235     0F19  1D03               	btfss	3,2
  1236     0F1A  2F1C               	goto	u4381
  1237     0F1B  2F1D               	goto	u4380
  1238     0F1C                     u4381:
  1239     0F1C  2F81               	goto	l3440
  1240     0F1D                     u4380:
  1241     0F1D                     l3408:
  1242                           
  1243                           ;Proyecto_Micros.c: 328:             PORTE = 0b010;
  1244     0F1D  3002               	movlw	2
  1245     0F1E  0089               	movwf	9	;volatile
  1246     0F1F                     l3410:
  1247                           
  1248                           ;Proyecto_Micros.c: 329:             if (activador_modo == 1){
  1249     0F1F  035A               	decf	_activador_modo,w
  1250     0F20  1D03               	btfss	3,2
  1251     0F21  2F23               	goto	u4391
  1252     0F22  2F24               	goto	u4390
  1253     0F23                     u4391:
  1254     0F23  2E32               	goto	l3358
  1255     0F24                     u4390:
  1256     0F24                     l3412:
  1257                           
  1258                           ;Proyecto_Micros.c: 331:                 OSCCONbits.IRCF = 0b111;
  1259     0F24  3070               	movlw	112
  1260     0F25  1683               	bsf	3,5	;RP0=1, select bank1
  1261     0F26  1303               	bcf	3,6	;RP1=0, select bank1
  1262     0F27  048F               	iorwf	15,f	;volatile
  1263     0F28                     l3414:
  1264                           
  1265                           ;Proyecto_Micros.c: 332:                 valor_mapeado0 = 20;
  1266     0F28  3014               	movlw	20
  1267     0F29  1283               	bcf	3,5	;RP0=0, select bank0
  1268     0F2A  1303               	bcf	3,6	;RP1=0, select bank0
  1269     0F2B  00D3               	movwf	_valor_mapeado0
  1270     0F2C  3000               	movlw	0
  1271     0F2D  00D4               	movwf	_valor_mapeado0+1
  1272     0F2E                     l3416:
  1273                           
  1274                           ;Proyecto_Micros.c: 333:                 valor_mapeado1 = 20;
  1275     0F2E  3014               	movlw	20
  1276     0F2F  1683               	bsf	3,5	;RP0=1, select bank1
  1277     0F30  1303               	bcf	3,6	;RP1=0, select bank1
  1278     0F31  00E0               	movwf	_valor_mapeado1^(0+128)
  1279     0F32  3000               	movlw	0
  1280     0F33  00E1               	movwf	(_valor_mapeado1^(0+128)+1)
  1281     0F34                     l3418:
  1282                           
  1283                           ;Proyecto_Micros.c: 334:                 valor_mapeado2 = 20;
  1284     0F34  3014               	movlw	20
  1285     0F35  00DE               	movwf	_valor_mapeado2^(0+128)
  1286     0F36  3000               	movlw	0
  1287     0F37  00DF               	movwf	(_valor_mapeado2^(0+128)+1)
  1288     0F38                     l3420:
  1289                           
  1290                           ;Proyecto_Micros.c: 335:                 valor_mapeado3 = 20;
  1291     0F38  3014               	movlw	20
  1292     0F39  00DC               	movwf	_valor_mapeado3^(0+128)
  1293     0F3A  3000               	movlw	0
  1294     0F3B  00DD               	movwf	(_valor_mapeado3^(0+128)+1)
  1295     0F3C                     l3422:
  1296                           
  1297                           ;Proyecto_Micros.c: 336:                 PWM_config(1, 20);
  1298     0F3C  3001               	movlw	1
  1299     0F3D  00C2               	movwf	PWM_config@canal^(0+128)
  1300     0F3E  3000               	movlw	0
  1301     0F3F  00C3               	movwf	(PWM_config@canal^(0+128)+1)
  1302     0F40  3041               	movlw	65
  1303     0F41  00C7               	movwf	(PWM_config@periodo_ms+3)^(0+128)
  1304     0F42  30A0               	movlw	160
  1305     0F43  00C6               	movwf	(PWM_config@periodo_ms+2)^(0+128)
  1306     0F44  3000               	movlw	0
  1307     0F45  00C5               	movwf	(PWM_config@periodo_ms+1)^(0+128)
  1308     0F46  3000               	movlw	0
  1309     0F47  00C4               	movwf	PWM_config@periodo_ms^(0+128)
  1310     0F48  120A  158A  21DE  120A  158A  	fcall	_PWM_config
  1311     0F4D                     l3424:
  1312                           
  1313                           ;Proyecto_Micros.c: 337:                 PWM_config(2, 20);
  1314     0F4D  3002               	movlw	2
  1315     0F4E  1683               	bsf	3,5	;RP0=1, select bank1
  1316     0F4F  1303               	bcf	3,6	;RP1=0, select bank1
  1317     0F50  00C2               	movwf	PWM_config@canal^(0+128)
  1318     0F51  3000               	movlw	0
  1319     0F52  00C3               	movwf	(PWM_config@canal^(0+128)+1)
  1320     0F53  3041               	movlw	65
  1321     0F54  00C7               	movwf	(PWM_config@periodo_ms+3)^(0+128)
  1322     0F55  30A0               	movlw	160
  1323     0F56  00C6               	movwf	(PWM_config@periodo_ms+2)^(0+128)
  1324     0F57  3000               	movlw	0
  1325     0F58  00C5               	movwf	(PWM_config@periodo_ms+1)^(0+128)
  1326     0F59  3000               	movlw	0
  1327     0F5A  00C4               	movwf	PWM_config@periodo_ms^(0+128)
  1328     0F5B  120A  158A  21DE  120A  158A  	fcall	_PWM_config
  1329     0F60                     l3426:
  1330                           
  1331                           ;Proyecto_Micros.c: 338:                 PWM_manual_config(15);
  1332     0F60  3041               	movlw	65
  1333     0F61  1683               	bsf	3,5	;RP0=1, select bank1
  1334     0F62  1303               	bcf	3,6	;RP1=0, select bank1
  1335     0F63  00C5               	movwf	(PWM_manual_config@periodo_ms+3)^(0+128)
  1336     0F64  3070               	movlw	112
  1337     0F65  00C4               	movwf	(PWM_manual_config@periodo_ms+2)^(0+128)
  1338     0F66  3000               	movlw	0
  1339     0F67  00C3               	movwf	(PWM_manual_config@periodo_ms+1)^(0+128)
  1340     0F68  3000               	movlw	0
  1341     0F69  00C2               	movwf	PWM_manual_config@periodo_ms^(0+128)
  1342     0F6A  120A  158A  236C  120A  158A  	fcall	_PWM_manual_config
  1343     0F6F                     l3428:
  1344                           
  1345                           ;Proyecto_Micros.c: 339:                 initUART();
  1346     0F6F  160A  118A  2626  120A  158A  	fcall	_initUART
  1347     0F74                     l3430:
  1348                           
  1349                           ;Proyecto_Micros.c: 341:                 modo_uart();
  1350     0F74  120A  118A  270D  120A  158A  	fcall	_modo_uart
  1351     0F79                     l3432:
  1352                           
  1353                           ;Proyecto_Micros.c: 344:                 T2CONbits.TMR2ON = 0;
  1354     0F79  1283               	bcf	3,5	;RP0=0, select bank0
  1355     0F7A  1303               	bcf	3,6	;RP1=0, select bank0
  1356     0F7B  1112               	bcf	18,2	;volatile
  1357     0F7C                     l3434:
  1358                           
  1359                           ;Proyecto_Micros.c: 345:                 OSCCONbits.IRCF = 0b111;
  1360     0F7C  3070               	movlw	112
  1361     0F7D  1683               	bsf	3,5	;RP0=1, select bank1
  1362     0F7E  1303               	bcf	3,6	;RP1=0, select bank1
  1363     0F7F  048F               	iorwf	15,f	;volatile
  1364     0F80  2EC2               	goto	l3380
  1365     0F81                     l3440:
  1366     0F81  3003               	movlw	3
  1367     0F82  065B               	xorwf	_modo_funcionamiento,w
  1368     0F83  1D03               	btfss	3,2
  1369     0F84  2F86               	goto	u4401
  1370     0F85  2F87               	goto	u4400
  1371     0F86                     u4401:
  1372     0F86  2E32               	goto	l3358
  1373     0F87                     u4400:
  1374     0F87                     l3442:
  1375                           
  1376                           ;Proyecto_Micros.c: 351:             PORTE = 0b100;
  1377     0F87  3004               	movlw	4
  1378     0F88  0089               	movwf	9	;volatile
  1379     0F89                     l3444:
  1380                           
  1381                           ;Proyecto_Micros.c: 352:             if (activador_modo == 1){
  1382     0F89  035A               	decf	_activador_modo,w
  1383     0F8A  1D03               	btfss	3,2
  1384     0F8B  2F8D               	goto	u4411
  1385     0F8C  2F8E               	goto	u4410
  1386     0F8D                     u4411:
  1387     0F8D  2FF7               	goto	l3482
  1388     0F8E                     u4410:
  1389     0F8E                     l3446:
  1390                           
  1391                           ;Proyecto_Micros.c: 353:                 PIE1bits.RCIE = 1;
  1392     0F8E  1683               	bsf	3,5	;RP0=1, select bank1
  1393     0F8F  1303               	bcf	3,6	;RP1=0, select bank1
  1394     0F90  168C               	bsf	12,5	;volatile
  1395     0F91                     l3448:
  1396                           
  1397                           ;Proyecto_Micros.c: 354:                 OSCCONbits.IRCF = 0b111;
  1398     0F91  3070               	movlw	112
  1399     0F92  048F               	iorwf	15,f	;volatile
  1400     0F93                     l3450:
  1401                           
  1402                           ;Proyecto_Micros.c: 355:                 initUART();
  1403     0F93  160A  118A  2626  120A  158A  	fcall	_initUART
  1404     0F98                     l3452:
  1405                           
  1406                           ;Proyecto_Micros.c: 356:                 RCSTAbits.SPEN = 1;
  1407     0F98  1283               	bcf	3,5	;RP0=0, select bank0
  1408     0F99  1303               	bcf	3,6	;RP1=0, select bank0
  1409     0F9A  1798               	bsf	24,7	;volatile
  1410     0F9B  2FF7               	goto	l3482
  1411     0F9C                     l3454:
  1412                           
  1413                           ;Proyecto_Micros.c: 359:                 if (status == 1){
  1414     0F9C  035C               	decf	_status,w
  1415     0F9D  1D03               	btfss	3,2
  1416     0F9E  2FA0               	goto	u4421
  1417     0F9F  2FA1               	goto	u4420
  1418     0FA0                     u4421:
  1419     0FA0  2FEE               	goto	l3476
  1420     0FA1                     u4420:
  1421     0FA1                     l3456:
  1422                           
  1423                           ;Proyecto_Micros.c: 361:                     PIE1bits.RCIE = 0;
  1424     0FA1  1683               	bsf	3,5	;RP0=1, select bank1
  1425     0FA2  1303               	bcf	3,6	;RP1=0, select bank1
  1426     0FA3  128C               	bcf	12,5	;volatile
  1427                           
  1428                           ;Proyecto_Micros.c: 362:                     RCSTAbits.SPEN = 0;
  1429     0FA4  1283               	bcf	3,5	;RP0=0, select bank0
  1430     0FA5  1303               	bcf	3,6	;RP1=0, select bank0
  1431     0FA6  1398               	bcf	24,7	;volatile
  1432     0FA7                     l3458:
  1433                           
  1434                           ;Proyecto_Micros.c: 363:                     OSCCONbits.IRCF = 0b111;
  1435     0FA7  3070               	movlw	112
  1436     0FA8  1683               	bsf	3,5	;RP0=1, select bank1
  1437     0FA9  1303               	bcf	3,6	;RP1=0, select bank1
  1438     0FAA  048F               	iorwf	15,f	;volatile
  1439     0FAB                     l3460:
  1440                           
  1441                           ;Proyecto_Micros.c: 364:                     PWM_config(1, 20);
  1442     0FAB  3001               	movlw	1
  1443     0FAC  00C2               	movwf	PWM_config@canal^(0+128)
  1444     0FAD  3000               	movlw	0
  1445     0FAE  00C3               	movwf	(PWM_config@canal^(0+128)+1)
  1446     0FAF  3041               	movlw	65
  1447     0FB0  00C7               	movwf	(PWM_config@periodo_ms+3)^(0+128)
  1448     0FB1  30A0               	movlw	160
  1449     0FB2  00C6               	movwf	(PWM_config@periodo_ms+2)^(0+128)
  1450     0FB3  3000               	movlw	0
  1451     0FB4  00C5               	movwf	(PWM_config@periodo_ms+1)^(0+128)
  1452     0FB5  3000               	movlw	0
  1453     0FB6  00C4               	movwf	PWM_config@periodo_ms^(0+128)
  1454     0FB7  120A  158A  21DE  120A  158A  	fcall	_PWM_config
  1455     0FBC                     l3462:
  1456                           
  1457                           ;Proyecto_Micros.c: 365:                     PWM_config(2, 20);
  1458     0FBC  3002               	movlw	2
  1459     0FBD  1683               	bsf	3,5	;RP0=1, select bank1
  1460     0FBE  1303               	bcf	3,6	;RP1=0, select bank1
  1461     0FBF  00C2               	movwf	PWM_config@canal^(0+128)
  1462     0FC0  3000               	movlw	0
  1463     0FC1  00C3               	movwf	(PWM_config@canal^(0+128)+1)
  1464     0FC2  3041               	movlw	65
  1465     0FC3  00C7               	movwf	(PWM_config@periodo_ms+3)^(0+128)
  1466     0FC4  30A0               	movlw	160
  1467     0FC5  00C6               	movwf	(PWM_config@periodo_ms+2)^(0+128)
  1468     0FC6  3000               	movlw	0
  1469     0FC7  00C5               	movwf	(PWM_config@periodo_ms+1)^(0+128)
  1470     0FC8  3000               	movlw	0
  1471     0FC9  00C4               	movwf	PWM_config@periodo_ms^(0+128)
  1472     0FCA  120A  158A  21DE  120A  158A  	fcall	_PWM_config
  1473     0FCF                     l3464:
  1474                           
  1475                           ;Proyecto_Micros.c: 366:                     PWM_manual_config(15);
  1476     0FCF  3041               	movlw	65
  1477     0FD0  1683               	bsf	3,5	;RP0=1, select bank1
  1478     0FD1  1303               	bcf	3,6	;RP1=0, select bank1
  1479     0FD2  00C5               	movwf	(PWM_manual_config@periodo_ms+3)^(0+128)
  1480     0FD3  3070               	movlw	112
  1481     0FD4  00C4               	movwf	(PWM_manual_config@periodo_ms+2)^(0+128)
  1482     0FD5  3000               	movlw	0
  1483     0FD6  00C3               	movwf	(PWM_manual_config@periodo_ms+1)^(0+128)
  1484     0FD7  3000               	movlw	0
  1485     0FD8  00C2               	movwf	PWM_manual_config@periodo_ms^(0+128)
  1486     0FD9  120A  158A  236C  120A  158A  	fcall	_PWM_manual_config
  1487     0FDE                     l3466:
  1488                           
  1489                           ;Proyecto_Micros.c: 368:                     modo_automatico();
  1490     0FDE  120A  158A  20D7  120A  158A  	fcall	_modo_automatico
  1491     0FE3                     l3468:
  1492                           
  1493                           ;Proyecto_Micros.c: 371:                     T2CONbits.TMR2ON = 0;
  1494     0FE3  1283               	bcf	3,5	;RP0=0, select bank0
  1495     0FE4  1303               	bcf	3,6	;RP1=0, select bank0
  1496     0FE5  1112               	bcf	18,2	;volatile
  1497     0FE6                     l3470:
  1498                           
  1499                           ;Proyecto_Micros.c: 372:                     OSCCONbits.IRCF = 0b111;
  1500     0FE6  3070               	movlw	112
  1501     0FE7  1683               	bsf	3,5	;RP0=1, select bank1
  1502     0FE8  1303               	bcf	3,6	;RP1=0, select bank1
  1503     0FE9  048F               	iorwf	15,f	;volatile
  1504     0FEA                     l3472:
  1505                           
  1506                           ;Proyecto_Micros.c: 373:                     PORTC = 0;
  1507     0FEA  1283               	bcf	3,5	;RP0=0, select bank0
  1508     0FEB  1303               	bcf	3,6	;RP1=0, select bank0
  1509     0FEC  0187               	clrf	7	;volatile
  1510     0FED                     l3474:
  1511                           
  1512                           ;Proyecto_Micros.c: 374:                     PORTD = 0;
  1513     0FED  0188               	clrf	8	;volatile
  1514     0FEE                     l3476:
  1515                           
  1516                           ;Proyecto_Micros.c: 377:                 if (activador_modo == 0){
  1517     0FEE  085A               	movf	_activador_modo,w
  1518     0FEF  1D03               	btfss	3,2
  1519     0FF0  2FF2               	goto	u4431
  1520     0FF1  2FF3               	goto	u4430
  1521     0FF2                     u4431:
  1522     0FF2  2FF7               	goto	l3482
  1523     0FF3                     u4430:
  1524     0FF3                     l3478:
  1525                           
  1526                           ;Proyecto_Micros.c: 378:                     status = 0;
  1527     0FF3  01DC               	clrf	_status
  1528     0FF4                     l3480:
  1529                           
  1530                           ;Proyecto_Micros.c: 379:                     PORTD = 129;
  1531     0FF4  3081               	movlw	129
  1532     0FF5  0088               	movwf	8	;volatile
  1533                           
  1534                           ;Proyecto_Micros.c: 380:                     break;
  1535     0FF6  2E32               	goto	l3358
  1536     0FF7                     l3482:
  1537                           
  1538                           ;Proyecto_Micros.c: 358:             while (activador_modo == 1){
  1539     0FF7  035A               	decf	_activador_modo,w
  1540     0FF8  1903               	btfsc	3,2
  1541     0FF9  2FFB               	goto	u4441
  1542     0FFA  2FFC               	goto	u4440
  1543     0FFB                     u4441:
  1544     0FFB  2F9C               	goto	l3454
  1545     0FFC                     u4440:
  1546     0FFC  2E32               	goto	l3358
  1547     0FFD  120A  118A  280E   	ljmp	start
  1548     1000                     __end_of_main:
  1549                           
  1550                           	psect	text1
  1551     177B                     __ptext1:	
  1552 ;; *************** function _setup *****************
  1553 ;; Defined at:
  1554 ;;		line 530 in file "Proyecto_Micros.c"
  1555 ;; Parameters:    Size  Location     Type
  1556 ;;		None
  1557 ;; Auto vars:     Size  Location     Type
  1558 ;;		None
  1559 ;; Return value:  Size  Location     Type
  1560 ;;                  1    wreg      void 
  1561 ;; Registers used:
  1562 ;;		wreg, status,2, status,0
  1563 ;; Tracked objects:
  1564 ;;		On entry : 0/0
  1565 ;;		On exit  : 0/0
  1566 ;;		Unchanged: 0/0
  1567 ;; Data sizes:     COMMON   BANK0   BANK1   BANK3   BANK2
  1568 ;;      Params:         0       0       0       0       0
  1569 ;;      Locals:         0       0       0       0       0
  1570 ;;      Temps:          0       0       0       0       0
  1571 ;;      Totals:         0       0       0       0       0
  1572 ;;Total ram usage:        0 bytes
  1573 ;; Hardware stack levels used: 1
  1574 ;; Hardware stack levels required when called: 3
  1575 ;; This function calls:
  1576 ;;		Nothing
  1577 ;; This function is called by:
  1578 ;;		_main
  1579 ;; This function uses a non-reentrant model
  1580 ;;
  1581                           
  1582     177B                     _setup:	
  1583                           ;psect for function _setup
  1584                           
  1585     177B                     l2566:	
  1586                           ;incstack = 0
  1587                           ; Regs used in _setup: [wreg+status,2+status,0]
  1588                           
  1589                           
  1590                           ;Proyecto_Micros.c: 533:     ANSELH = 0;
  1591     177B  1683               	bsf	3,5	;RP0=1, select bank3
  1592     177C  1703               	bsf	3,6	;RP1=1, select bank3
  1593     177D  0189               	clrf	9	;volatile
  1594     177E                     l2568:
  1595                           
  1596                           ;Proyecto_Micros.c: 535:     TRISB = 0b11111;
  1597     177E  301F               	movlw	31
  1598     177F  1683               	bsf	3,5	;RP0=1, select bank1
  1599     1780  1303               	bcf	3,6	;RP1=0, select bank1
  1600     1781  0086               	movwf	6	;volatile
  1601     1782                     l2570:
  1602                           
  1603                           ;Proyecto_Micros.c: 536:     TRISD = 0;
  1604     1782  0188               	clrf	8	;volatile
  1605     1783                     l2572:
  1606                           
  1607                           ;Proyecto_Micros.c: 537:     TRISE = 0;
  1608     1783  0189               	clrf	9	;volatile
  1609     1784                     l2574:
  1610                           
  1611                           ;Proyecto_Micros.c: 539:     PORTD = 0;
  1612     1784  1283               	bcf	3,5	;RP0=0, select bank0
  1613     1785  1303               	bcf	3,6	;RP1=0, select bank0
  1614     1786  0188               	clrf	8	;volatile
  1615     1787                     l2576:
  1616                           
  1617                           ;Proyecto_Micros.c: 540:     PORTE = 0;
  1618     1787  0189               	clrf	9	;volatile
  1619     1788                     l2578:
  1620                           
  1621                           ;Proyecto_Micros.c: 541:     PORTA = 0;
  1622     1788  0185               	clrf	5	;volatile
  1623     1789                     l2580:
  1624                           
  1625                           ;Proyecto_Micros.c: 544:     OPTION_REGbits.nRBPU = 0;
  1626     1789  1683               	bsf	3,5	;RP0=1, select bank1
  1627     178A  1303               	bcf	3,6	;RP1=0, select bank1
  1628     178B  1381               	bcf	1,7	;volatile
  1629                           
  1630                           ;Proyecto_Micros.c: 545:     WPUB = 0b11111;
  1631     178C  301F               	movlw	31
  1632     178D  0095               	movwf	21	;volatile
  1633                           
  1634                           ;Proyecto_Micros.c: 546:     IOCB = 0b11111;
  1635     178E  301F               	movlw	31
  1636     178F  0096               	movwf	22	;volatile
  1637     1790                     l2582:
  1638                           
  1639                           ;Proyecto_Micros.c: 549:     OSCCONbits.IRCF = 0b111;
  1640     1790  3070               	movlw	112
  1641     1791  048F               	iorwf	15,f	;volatile
  1642     1792                     l2584:
  1643                           
  1644                           ;Proyecto_Micros.c: 550:     OSCCONbits.SCS = 1;
  1645     1792  140F               	bsf	15,0	;volatile
  1646     1793                     l2586:
  1647                           
  1648                           ;Proyecto_Micros.c: 553:     PIR1bits.ADIF = 0;
  1649     1793  1283               	bcf	3,5	;RP0=0, select bank0
  1650     1794  1303               	bcf	3,6	;RP1=0, select bank0
  1651     1795  130C               	bcf	12,6	;volatile
  1652     1796                     l2588:
  1653                           
  1654                           ;Proyecto_Micros.c: 554:     PIE1bits.ADIE = 1;
  1655     1796  1683               	bsf	3,5	;RP0=1, select bank1
  1656     1797  1303               	bcf	3,6	;RP1=0, select bank1
  1657     1798  170C               	bsf	12,6	;volatile
  1658     1799                     l2590:
  1659                           
  1660                           ;Proyecto_Micros.c: 555:     PIE1bits.RCIE = 1;
  1661     1799  168C               	bsf	12,5	;volatile
  1662     179A                     l2592:
  1663                           
  1664                           ;Proyecto_Micros.c: 556:     INTCONbits.GIE = 1;
  1665     179A  178B               	bsf	11,7	;volatile
  1666     179B                     l2594:
  1667                           
  1668                           ;Proyecto_Micros.c: 557:     INTCONbits.PEIE = 1;
  1669     179B  170B               	bsf	11,6	;volatile
  1670     179C                     l2596:
  1671                           
  1672                           ;Proyecto_Micros.c: 558:     INTCONbits.RBIF = 0;
  1673     179C  100B               	bcf	11,0	;volatile
  1674     179D                     l2598:
  1675                           
  1676                           ;Proyecto_Micros.c: 559:     INTCONbits.RBIE = 1;
  1677     179D  158B               	bsf	11,3	;volatile
  1678     179E                     l2600:
  1679                           
  1680                           ;Proyecto_Micros.c: 562:     ANSEL = 0b1111;
  1681     179E  300F               	movlw	15
  1682     179F  1683               	bsf	3,5	;RP0=1, select bank3
  1683     17A0  1703               	bsf	3,6	;RP1=1, select bank3
  1684     17A1  0088               	movwf	8	;volatile
  1685     17A2                     l2602:
  1686                           
  1687                           ;Proyecto_Micros.c: 563:     TRISA = 0b1111;
  1688     17A2  300F               	movlw	15
  1689     17A3  1683               	bsf	3,5	;RP0=1, select bank1
  1690     17A4  1303               	bcf	3,6	;RP1=0, select bank1
  1691     17A5  0085               	movwf	5	;volatile
  1692     17A6                     l2604:
  1693                           
  1694                           ;Proyecto_Micros.c: 564:     ADCON0bits.ADCS = 0b10;
  1695     17A6  1283               	bcf	3,5	;RP0=0, select bank0
  1696     17A7  1303               	bcf	3,6	;RP1=0, select bank0
  1697     17A8  081F               	movf	31,w	;volatile
  1698     17A9  393F               	andlw	-193
  1699     17AA  3880               	iorlw	128
  1700     17AB  009F               	movwf	31	;volatile
  1701     17AC                     l2606:
  1702                           
  1703                           ;Proyecto_Micros.c: 565:     ADCON0bits.CHS = 0b0000;
  1704     17AC  30C3               	movlw	-61
  1705     17AD  059F               	andwf	31,f	;volatile
  1706     17AE                     l2608:
  1707                           
  1708                           ;Proyecto_Micros.c: 566:     ADCON1bits.ADFM = 0;
  1709     17AE  1683               	bsf	3,5	;RP0=1, select bank1
  1710     17AF  1303               	bcf	3,6	;RP1=0, select bank1
  1711     17B0  139F               	bcf	31,7	;volatile
  1712     17B1                     l2610:
  1713                           
  1714                           ;Proyecto_Micros.c: 567:     ADCON1bits.VCFG0 = 0;
  1715     17B1  121F               	bcf	31,4	;volatile
  1716     17B2                     l2612:
  1717                           
  1718                           ;Proyecto_Micros.c: 568:     ADCON1bits.VCFG1 = 0;
  1719     17B2  129F               	bcf	31,5	;volatile
  1720     17B3                     l2614:
  1721                           
  1722                           ;Proyecto_Micros.c: 569:     ADCON0bits.ADON = 0;
  1723     17B3  1283               	bcf	3,5	;RP0=0, select bank0
  1724     17B4  1303               	bcf	3,6	;RP1=0, select bank0
  1725     17B5  101F               	bcf	31,0	;volatile
  1726     17B6                     l309:
  1727     17B6  0008               	return
  1728     17B7                     __end_of_setup:
  1729                           
  1730                           	psect	text2
  1731     1659                     __ptext2:	
  1732 ;; *************** function _read_EEPROM *****************
  1733 ;; Defined at:
  1734 ;;		line 599 in file "Proyecto_Micros.c"
  1735 ;; Parameters:    Size  Location     Type
  1736 ;;  address         1    wreg     unsigned char 
  1737 ;; Auto vars:     Size  Location     Type
  1738 ;;  address         1   14[BANK0 ] unsigned char 
  1739 ;; Return value:  Size  Location     Type
  1740 ;;                  1    wreg      unsigned char 
  1741 ;; Registers used:
  1742 ;;		wreg
  1743 ;; Tracked objects:
  1744 ;;		On entry : 0/0
  1745 ;;		On exit  : 0/0
  1746 ;;		Unchanged: 0/0
  1747 ;; Data sizes:     COMMON   BANK0   BANK1   BANK3   BANK2
  1748 ;;      Params:         0       0       0       0       0
  1749 ;;      Locals:         0       1       0       0       0
  1750 ;;      Temps:          0       0       0       0       0
  1751 ;;      Totals:         0       1       0       0       0
  1752 ;;Total ram usage:        1 bytes
  1753 ;; Hardware stack levels used: 1
  1754 ;; Hardware stack levels required when called: 3
  1755 ;; This function calls:
  1756 ;;		Nothing
  1757 ;; This function is called by:
  1758 ;;		_main
  1759 ;; This function uses a non-reentrant model
  1760 ;;
  1761                           
  1762     1659                     _read_EEPROM:	
  1763                           ;psect for function _read_EEPROM
  1764                           
  1765                           
  1766                           ;incstack = 0
  1767                           ; Regs used in _read_EEPROM: [wreg]
  1768                           ;read_EEPROM@address stored from wreg
  1769     1659  1283               	bcf	3,5	;RP0=0, select bank0
  1770     165A  1303               	bcf	3,6	;RP1=0, select bank0
  1771     165B  00AE               	movwf	read_EEPROM@address
  1772     165C                     l2536:
  1773     165C                     l321:	
  1774                           ;Proyecto_Micros.c: 600:     while (WR||RD){;}
  1775                           
  1776     165C  1683               	bsf	3,5	;RP0=1, select bank3
  1777     165D  1703               	bsf	3,6	;RP1=1, select bank3
  1778     165E  188C               	btfsc	12,1	;volsfr
  1779     165F  2E61               	goto	u3101
  1780     1660  2E62               	goto	u3100
  1781     1661                     u3101:
  1782     1661  2E5C               	goto	l321
  1783     1662                     u3100:
  1784     1662                     l2538:
  1785     1662  180C               	btfsc	12,0	;volsfr
  1786     1663  2E65               	goto	u3111
  1787     1664  2E66               	goto	u3110
  1788     1665                     u3111:
  1789     1665  2E5C               	goto	l321
  1790     1666                     u3110:
  1791     1666                     l2540:
  1792                           
  1793                           ;Proyecto_Micros.c: 601:     EEADR = address ;
  1794     1666  1283               	bcf	3,5	;RP0=0, select bank0
  1795     1667  1303               	bcf	3,6	;RP1=0, select bank0
  1796     1668  082E               	movf	read_EEPROM@address,w
  1797     1669  1283               	bcf	3,5	;RP0=0, select bank2
  1798     166A  1703               	bsf	3,6	;RP1=1, select bank2
  1799     166B  008D               	movwf	13	;volatile
  1800     166C                     l2542:
  1801                           
  1802                           ;Proyecto_Micros.c: 602:     EECON1bits.EEPGD = 0;
  1803     166C  1683               	bsf	3,5	;RP0=1, select bank3
  1804     166D  1703               	bsf	3,6	;RP1=1, select bank3
  1805     166E  138C               	bcf	12,7	;volsfr
  1806     166F                     l2544:
  1807                           
  1808                           ;Proyecto_Micros.c: 603:     EECON1bits.RD = 1;
  1809     166F  140C               	bsf	12,0	;volsfr
  1810                           
  1811                           ;Proyecto_Micros.c: 604:     return EEDAT;
  1812     1670  1283               	bcf	3,5	;RP0=0, select bank2
  1813     1671  1703               	bsf	3,6	;RP1=1, select bank2
  1814     1672  080C               	movf	12,w	;volatile
  1815     1673                     l324:
  1816     1673  0008               	return
  1817     1674                     __end_of_read_EEPROM:
  1818                           
  1819                           	psect	text3
  1820     070D                     __ptext3:	
  1821 ;; *************** function _modo_uart *****************
  1822 ;; Defined at:
  1823 ;;		line 438 in file "Proyecto_Micros.c"
  1824 ;; Parameters:    Size  Location     Type
  1825 ;;		None
  1826 ;; Auto vars:     Size  Location     Type
  1827 ;;		None
  1828 ;; Return value:  Size  Location     Type
  1829 ;;                  1    wreg      void 
  1830 ;; Registers used:
  1831 ;;		wreg, status,2, status,0, pclath, cstack
  1832 ;; Tracked objects:
  1833 ;;		On entry : 0/0
  1834 ;;		On exit  : 0/0
  1835 ;;		Unchanged: 0/0
  1836 ;; Data sizes:     COMMON   BANK0   BANK1   BANK3   BANK2
  1837 ;;      Params:         0       0       0       0       0
  1838 ;;      Locals:         0       0       0       0       0
  1839 ;;      Temps:          0       2       0       0       0
  1840 ;;      Totals:         0       2       0       0       0
  1841 ;;Total ram usage:        2 bytes
  1842 ;; Hardware stack levels used: 1
  1843 ;; Hardware stack levels required when called: 4
  1844 ;; This function calls:
  1845 ;;		_PWM_duty
  1846 ;;		_PWM_manual
  1847 ;; This function is called by:
  1848 ;;		_main
  1849 ;; This function uses a non-reentrant model
  1850 ;;
  1851                           
  1852     070D                     _modo_uart:	
  1853                           ;psect for function _modo_uart
  1854                           
  1855     070D                     l299:	
  1856                           ;incstack = 0
  1857                           ; Regs used in _modo_uart: [wreg+status,2+status,0+pclath+cstack]
  1858                           ;Proyecto_Micros.c: 439:     while (1){
  1859                           
  1860                           
  1861                           ;Proyecto_Micros.c: 440:         RCSTAbits.SPEN = 1;
  1862     070D  1283               	bcf	3,5	;RP0=0, select bank0
  1863     070E  1303               	bcf	3,6	;RP1=0, select bank0
  1864     070F  1798               	bsf	24,7	;volatile
  1865     0710                     l2726:
  1866                           
  1867                           ;Proyecto_Micros.c: 441:         TXREG = valor_mapeado0;
  1868     0710  0853               	movf	_valor_mapeado0,w
  1869     0711  0099               	movwf	25	;volatile
  1870                           
  1871                           ;Proyecto_Micros.c: 442:         _delay((unsigned long)((30)*(500000/4000.0)));
  1872     0712  3005               	movlw	5
  1873     0713  1283               	bcf	3,5	;RP0=0, select bank0
  1874     0714  1303               	bcf	3,6	;RP1=0, select bank0
  1875     0715  00B5               	movwf	??_modo_uart+1
  1876     0716  30DD               	movlw	221
  1877     0717  00B4               	movwf	??_modo_uart
  1878     0718                     u4457:
  1879     0718  0BB4               	decfsz	??_modo_uart,f
  1880     0719  2F18               	goto	u4457
  1881     071A  0BB5               	decfsz	??_modo_uart+1,f
  1882     071B  2F18               	goto	u4457
  1883                           
  1884                           ;Proyecto_Micros.c: 443:          TXREG = '\n';
  1885     071C  300A               	movlw	10
  1886     071D  1283               	bcf	3,5	;RP0=0, select bank0
  1887     071E  1303               	bcf	3,6	;RP1=0, select bank0
  1888     071F  0099               	movwf	25	;volatile
  1889                           
  1890                           ;Proyecto_Micros.c: 444:         _delay((unsigned long)((30)*(500000/4000.0)));
  1891     0720  3005               	movlw	5
  1892     0721  1283               	bcf	3,5	;RP0=0, select bank0
  1893     0722  1303               	bcf	3,6	;RP1=0, select bank0
  1894     0723  00B5               	movwf	??_modo_uart+1
  1895     0724  30DD               	movlw	221
  1896     0725  00B4               	movwf	??_modo_uart
  1897     0726                     u4467:
  1898     0726  0BB4               	decfsz	??_modo_uart,f
  1899     0727  2F26               	goto	u4467
  1900     0728  0BB5               	decfsz	??_modo_uart+1,f
  1901     0729  2F26               	goto	u4467
  1902                           
  1903                           ;Proyecto_Micros.c: 445:         TXREG = valor_mapeado1;
  1904     072A  1683               	bsf	3,5	;RP0=1, select bank1
  1905     072B  1303               	bcf	3,6	;RP1=0, select bank1
  1906     072C  0860               	movf	_valor_mapeado1^(0+128),w
  1907     072D  1283               	bcf	3,5	;RP0=0, select bank0
  1908     072E  1303               	bcf	3,6	;RP1=0, select bank0
  1909     072F  0099               	movwf	25	;volatile
  1910                           
  1911                           ;Proyecto_Micros.c: 446:         _delay((unsigned long)((30)*(500000/4000.0)));
  1912     0730  3005               	movlw	5
  1913     0731  1283               	bcf	3,5	;RP0=0, select bank0
  1914     0732  1303               	bcf	3,6	;RP1=0, select bank0
  1915     0733  00B5               	movwf	??_modo_uart+1
  1916     0734  30DD               	movlw	221
  1917     0735  00B4               	movwf	??_modo_uart
  1918     0736                     u4477:
  1919     0736  0BB4               	decfsz	??_modo_uart,f
  1920     0737  2F36               	goto	u4477
  1921     0738  0BB5               	decfsz	??_modo_uart+1,f
  1922     0739  2F36               	goto	u4477
  1923                           
  1924                           ;Proyecto_Micros.c: 447:          TXREG = '\n';
  1925     073A  300A               	movlw	10
  1926     073B  1283               	bcf	3,5	;RP0=0, select bank0
  1927     073C  1303               	bcf	3,6	;RP1=0, select bank0
  1928     073D  0099               	movwf	25	;volatile
  1929                           
  1930                           ;Proyecto_Micros.c: 448:         _delay((unsigned long)((30)*(500000/4000.0)));
  1931     073E  3005               	movlw	5
  1932     073F  1283               	bcf	3,5	;RP0=0, select bank0
  1933     0740  1303               	bcf	3,6	;RP1=0, select bank0
  1934     0741  00B5               	movwf	??_modo_uart+1
  1935     0742  30DD               	movlw	221
  1936     0743  00B4               	movwf	??_modo_uart
  1937     0744                     u4487:
  1938     0744  0BB4               	decfsz	??_modo_uart,f
  1939     0745  2F44               	goto	u4487
  1940     0746  0BB5               	decfsz	??_modo_uart+1,f
  1941     0747  2F44               	goto	u4487
  1942                           
  1943                           ;Proyecto_Micros.c: 449:         TXREG = valor_mapeado2;
  1944     0748  1683               	bsf	3,5	;RP0=1, select bank1
  1945     0749  1303               	bcf	3,6	;RP1=0, select bank1
  1946     074A  085E               	movf	_valor_mapeado2^(0+128),w
  1947     074B  1283               	bcf	3,5	;RP0=0, select bank0
  1948     074C  1303               	bcf	3,6	;RP1=0, select bank0
  1949     074D  0099               	movwf	25	;volatile
  1950                           
  1951                           ;Proyecto_Micros.c: 450:         _delay((unsigned long)((30)*(500000/4000.0)));
  1952     074E  3005               	movlw	5
  1953     074F  1283               	bcf	3,5	;RP0=0, select bank0
  1954     0750  1303               	bcf	3,6	;RP1=0, select bank0
  1955     0751  00B5               	movwf	??_modo_uart+1
  1956     0752  30DD               	movlw	221
  1957     0753  00B4               	movwf	??_modo_uart
  1958     0754                     u4497:
  1959     0754  0BB4               	decfsz	??_modo_uart,f
  1960     0755  2F54               	goto	u4497
  1961     0756  0BB5               	decfsz	??_modo_uart+1,f
  1962     0757  2F54               	goto	u4497
  1963                           
  1964                           ;Proyecto_Micros.c: 451:         TXREG = '\n';
  1965     0758  300A               	movlw	10
  1966     0759  1283               	bcf	3,5	;RP0=0, select bank0
  1967     075A  1303               	bcf	3,6	;RP1=0, select bank0
  1968     075B  0099               	movwf	25	;volatile
  1969                           
  1970                           ;Proyecto_Micros.c: 452:         _delay((unsigned long)((30)*(500000/4000.0)));
  1971     075C  3005               	movlw	5
  1972     075D  1283               	bcf	3,5	;RP0=0, select bank0
  1973     075E  1303               	bcf	3,6	;RP1=0, select bank0
  1974     075F  00B5               	movwf	??_modo_uart+1
  1975     0760  30DD               	movlw	221
  1976     0761  00B4               	movwf	??_modo_uart
  1977     0762                     u4507:
  1978     0762  0BB4               	decfsz	??_modo_uart,f
  1979     0763  2F62               	goto	u4507
  1980     0764  0BB5               	decfsz	??_modo_uart+1,f
  1981     0765  2F62               	goto	u4507
  1982                           
  1983                           ;Proyecto_Micros.c: 453:         TXREG = valor_mapeado3;
  1984     0766  1683               	bsf	3,5	;RP0=1, select bank1
  1985     0767  1303               	bcf	3,6	;RP1=0, select bank1
  1986     0768  085C               	movf	_valor_mapeado3^(0+128),w
  1987     0769  1283               	bcf	3,5	;RP0=0, select bank0
  1988     076A  1303               	bcf	3,6	;RP1=0, select bank0
  1989     076B  0099               	movwf	25	;volatile
  1990                           
  1991                           ;Proyecto_Micros.c: 454:         _delay((unsigned long)((30)*(500000/4000.0)));
  1992     076C  3005               	movlw	5
  1993     076D  1283               	bcf	3,5	;RP0=0, select bank0
  1994     076E  1303               	bcf	3,6	;RP1=0, select bank0
  1995     076F  00B5               	movwf	??_modo_uart+1
  1996     0770  30DD               	movlw	221
  1997     0771  00B4               	movwf	??_modo_uart
  1998     0772                     u4517:
  1999     0772  0BB4               	decfsz	??_modo_uart,f
  2000     0773  2F72               	goto	u4517
  2001     0774  0BB5               	decfsz	??_modo_uart+1,f
  2002     0775  2F72               	goto	u4517
  2003                           
  2004                           ;Proyecto_Micros.c: 455:         TXREG = '\n';
  2005     0776  300A               	movlw	10
  2006     0777  1283               	bcf	3,5	;RP0=0, select bank0
  2007     0778  1303               	bcf	3,6	;RP1=0, select bank0
  2008     0779  0099               	movwf	25	;volatile
  2009                           
  2010                           ;Proyecto_Micros.c: 456:         _delay((unsigned long)((30)*(500000/4000.0)));
  2011     077A  3005               	movlw	5
  2012     077B  1283               	bcf	3,5	;RP0=0, select bank0
  2013     077C  1303               	bcf	3,6	;RP1=0, select bank0
  2014     077D  00B5               	movwf	??_modo_uart+1
  2015     077E  30DD               	movlw	221
  2016     077F  00B4               	movwf	??_modo_uart
  2017     0780                     u4527:
  2018     0780  0BB4               	decfsz	??_modo_uart,f
  2019     0781  2F80               	goto	u4527
  2020     0782  0BB5               	decfsz	??_modo_uart+1,f
  2021     0783  2F80               	goto	u4527
  2022     0784                     l2728:
  2023                           
  2024                           ;Proyecto_Micros.c: 458:         RCSTAbits.SPEN = 0;
  2025     0784  1283               	bcf	3,5	;RP0=0, select bank0
  2026     0785  1303               	bcf	3,6	;RP1=0, select bank0
  2027     0786  1398               	bcf	24,7	;volatile
  2028     0787                     l2730:
  2029                           
  2030                           ;Proyecto_Micros.c: 460:         T2CONbits.TMR2ON = 0;
  2031     0787  1112               	bcf	18,2	;volatile
  2032     0788                     l2732:
  2033                           
  2034                           ;Proyecto_Micros.c: 461:         OSCCONbits.IRCF = 0b111;
  2035     0788  3070               	movlw	112
  2036     0789  1683               	bsf	3,5	;RP0=1, select bank1
  2037     078A  1303               	bcf	3,6	;RP1=0, select bank1
  2038     078B  048F               	iorwf	15,f	;volatile
  2039     078C                     l2734:
  2040                           
  2041                           ;Proyecto_Micros.c: 462:         PWM_manual(valor_mapeado0, 0b1);
  2042     078C  1283               	bcf	3,5	;RP0=0, select bank0
  2043     078D  1303               	bcf	3,6	;RP1=0, select bank0
  2044     078E  0854               	movf	_valor_mapeado0+1,w
  2045     078F  00AF               	movwf	PWM_manual@limite_pot+1
  2046     0790  0853               	movf	_valor_mapeado0,w
  2047     0791  00AE               	movwf	PWM_manual@limite_pot
  2048     0792  3001               	movlw	1
  2049     0793  00B0               	movwf	PWM_manual@puerto
  2050     0794  3000               	movlw	0
  2051     0795  00B1               	movwf	PWM_manual@puerto+1
  2052     0796  160A  118A  2747  120A  118A  	fcall	_PWM_manual
  2053     079B                     l2736:
  2054                           
  2055                           ;Proyecto_Micros.c: 463:         PWM_manual(valor_mapeado3, 0b1000);
  2056     079B  1683               	bsf	3,5	;RP0=1, select bank1
  2057     079C  1303               	bcf	3,6	;RP1=0, select bank1
  2058     079D  085D               	movf	(_valor_mapeado3+1)^(0+128),w
  2059     079E  1283               	bcf	3,5	;RP0=0, select bank0
  2060     079F  1303               	bcf	3,6	;RP1=0, select bank0
  2061     07A0  00AF               	movwf	PWM_manual@limite_pot+1
  2062     07A1  1683               	bsf	3,5	;RP0=1, select bank1
  2063     07A2  1303               	bcf	3,6	;RP1=0, select bank1
  2064     07A3  085C               	movf	_valor_mapeado3^(0+128),w
  2065     07A4  1283               	bcf	3,5	;RP0=0, select bank0
  2066     07A5  1303               	bcf	3,6	;RP1=0, select bank0
  2067     07A6  00AE               	movwf	PWM_manual@limite_pot
  2068     07A7  3008               	movlw	8
  2069     07A8  00B0               	movwf	PWM_manual@puerto
  2070     07A9  3000               	movlw	0
  2071     07AA  00B1               	movwf	PWM_manual@puerto+1
  2072     07AB  160A  118A  2747  120A  118A  	fcall	_PWM_manual
  2073     07B0                     l2738:
  2074                           
  2075                           ;Proyecto_Micros.c: 465:         OSCCONbits.IRCF = 0b011;
  2076     07B0  1683               	bsf	3,5	;RP0=1, select bank1
  2077     07B1  1303               	bcf	3,6	;RP1=0, select bank1
  2078     07B2  080F               	movf	15,w	;volatile
  2079     07B3  398F               	andlw	-113
  2080     07B4  3830               	iorlw	48
  2081     07B5  008F               	movwf	15	;volatile
  2082     07B6                     l2740:
  2083                           
  2084                           ;Proyecto_Micros.c: 466:         T2CONbits.TMR2ON = 1;
  2085     07B6  1283               	bcf	3,5	;RP0=0, select bank0
  2086     07B7  1303               	bcf	3,6	;RP1=0, select bank0
  2087     07B8  1512               	bsf	18,2	;volatile
  2088     07B9                     l2742:
  2089                           
  2090                           ;Proyecto_Micros.c: 467:         PWM_duty(2,valor_mapeado1);
  2091     07B9  3002               	movlw	2
  2092     07BA  00AE               	movwf	PWM_duty@canal
  2093     07BB  3000               	movlw	0
  2094     07BC  00AF               	movwf	PWM_duty@canal+1
  2095     07BD  1683               	bsf	3,5	;RP0=1, select bank1
  2096     07BE  1303               	bcf	3,6	;RP1=0, select bank1
  2097     07BF  0861               	movf	(_valor_mapeado1+1)^(0+128),w
  2098     07C0  1283               	bcf	3,5	;RP0=0, select bank0
  2099     07C1  1303               	bcf	3,6	;RP1=0, select bank0
  2100     07C2  00B1               	movwf	PWM_duty@DutyCycle+1
  2101     07C3  1683               	bsf	3,5	;RP0=1, select bank1
  2102     07C4  1303               	bcf	3,6	;RP1=0, select bank1
  2103     07C5  0860               	movf	_valor_mapeado1^(0+128),w
  2104     07C6  1283               	bcf	3,5	;RP0=0, select bank0
  2105     07C7  1303               	bcf	3,6	;RP1=0, select bank0
  2106     07C8  00B0               	movwf	PWM_duty@DutyCycle
  2107     07C9  160A  118A  27B7  120A  118A  	fcall	_PWM_duty
  2108     07CE                     l2744:
  2109                           
  2110                           ;Proyecto_Micros.c: 468:         PWM_duty(1,valor_mapeado2);
  2111     07CE  3001               	movlw	1
  2112     07CF  1283               	bcf	3,5	;RP0=0, select bank0
  2113     07D0  1303               	bcf	3,6	;RP1=0, select bank0
  2114     07D1  00AE               	movwf	PWM_duty@canal
  2115     07D2  3000               	movlw	0
  2116     07D3  00AF               	movwf	PWM_duty@canal+1
  2117     07D4  1683               	bsf	3,5	;RP0=1, select bank1
  2118     07D5  1303               	bcf	3,6	;RP1=0, select bank1
  2119     07D6  085F               	movf	(_valor_mapeado2+1)^(0+128),w
  2120     07D7  1283               	bcf	3,5	;RP0=0, select bank0
  2121     07D8  1303               	bcf	3,6	;RP1=0, select bank0
  2122     07D9  00B1               	movwf	PWM_duty@DutyCycle+1
  2123     07DA  1683               	bsf	3,5	;RP0=1, select bank1
  2124     07DB  1303               	bcf	3,6	;RP1=0, select bank1
  2125     07DC  085E               	movf	_valor_mapeado2^(0+128),w
  2126     07DD  1283               	bcf	3,5	;RP0=0, select bank0
  2127     07DE  1303               	bcf	3,6	;RP1=0, select bank0
  2128     07DF  00B0               	movwf	PWM_duty@DutyCycle
  2129     07E0  160A  118A  27B7  120A  118A  	fcall	_PWM_duty
  2130                           
  2131                           ;Proyecto_Micros.c: 469:         _delay((unsigned long)((20)*(500000/4000.0)));
  2132     07E5  3004               	movlw	4
  2133     07E6  1283               	bcf	3,5	;RP0=0, select bank0
  2134     07E7  1303               	bcf	3,6	;RP1=0, select bank0
  2135     07E8  00B5               	movwf	??_modo_uart+1
  2136     07E9  303D               	movlw	61
  2137     07EA  00B4               	movwf	??_modo_uart
  2138     07EB                     u4537:
  2139     07EB  0BB4               	decfsz	??_modo_uart,f
  2140     07EC  2FEB               	goto	u4537
  2141     07ED  0BB5               	decfsz	??_modo_uart+1,f
  2142     07EE  2FEB               	goto	u4537
  2143     07EF                     l2746:
  2144                           
  2145                           ;Proyecto_Micros.c: 471:         T2CONbits.TMR2ON = 0;
  2146     07EF  1283               	bcf	3,5	;RP0=0, select bank0
  2147     07F0  1303               	bcf	3,6	;RP1=0, select bank0
  2148     07F1  1112               	bcf	18,2	;volatile
  2149     07F2                     l2748:
  2150                           
  2151                           ;Proyecto_Micros.c: 472:         OSCCONbits.IRCF = 0b111;
  2152     07F2  3070               	movlw	112
  2153     07F3  1683               	bsf	3,5	;RP0=1, select bank1
  2154     07F4  1303               	bcf	3,6	;RP1=0, select bank1
  2155     07F5  048F               	iorwf	15,f	;volatile
  2156     07F6                     l2750:
  2157                           
  2158                           ;Proyecto_Micros.c: 473:         if (activador_modo == 0){
  2159     07F6  1283               	bcf	3,5	;RP0=0, select bank0
  2160     07F7  1303               	bcf	3,6	;RP1=0, select bank0
  2161     07F8  085A               	movf	_activador_modo,w
  2162     07F9  1D03               	btfss	3,2
  2163     07FA  2FFC               	goto	u3191
  2164     07FB  2FFD               	goto	u3190
  2165     07FC                     u3191:
  2166     07FC  2F0D               	goto	l299
  2167     07FD                     u3190:
  2168     07FD                     l303:
  2169     07FD  0008               	return
  2170     07FE                     __end_of_modo_uart:
  2171                           
  2172                           	psect	text4
  2173     0A89                     __ptext4:	
  2174 ;; *************** function _modo_manual *****************
  2175 ;; Defined at:
  2176 ;;		line 412 in file "Proyecto_Micros.c"
  2177 ;; Parameters:    Size  Location     Type
  2178 ;;		None
  2179 ;; Auto vars:     Size  Location     Type
  2180 ;;		None
  2181 ;; Return value:  Size  Location     Type
  2182 ;;                  1    wreg      void 
  2183 ;; Registers used:
  2184 ;;		wreg, status,2, status,0, pclath, cstack
  2185 ;; Tracked objects:
  2186 ;;		On entry : 0/0
  2187 ;;		On exit  : 0/0
  2188 ;;		Unchanged: 0/0
  2189 ;; Data sizes:     COMMON   BANK0   BANK1   BANK3   BANK2
  2190 ;;      Params:         0       0       0       0       0
  2191 ;;      Locals:         0       0       0       0       0
  2192 ;;      Temps:          0       2       0       0       0
  2193 ;;      Totals:         0       2       0       0       0
  2194 ;;Total ram usage:        2 bytes
  2195 ;; Hardware stack levels used: 1
  2196 ;; Hardware stack levels required when called: 5
  2197 ;; This function calls:
  2198 ;;		_PWM_duty
  2199 ;;		_PWM_manual
  2200 ;;		_map
  2201 ;; This function is called by:
  2202 ;;		_main
  2203 ;; This function uses a non-reentrant model
  2204 ;;
  2205                           
  2206     0A89                     _modo_manual:	
  2207                           ;psect for function _modo_manual
  2208                           
  2209     0A89                     l291:	
  2210                           ;incstack = 0
  2211                           ; Regs used in _modo_manual: [wreg+status,2+status,0+pclath+cstack]
  2212                           ;Proyecto_Micros.c: 413:     while (1){
  2213                           
  2214                           
  2215                           ;Proyecto_Micros.c: 414:         if (ADCON0bits.GO == 0){
  2216     0A89  1283               	bcf	3,5	;RP0=0, select bank0
  2217     0A8A  1303               	bcf	3,6	;RP1=0, select bank0
  2218     0A8B  189F               	btfsc	31,1	;volatile
  2219     0A8C  2A8E               	goto	u3171
  2220     0A8D  2A8F               	goto	u3170
  2221     0A8E                     u3171:
  2222     0A8E  2A90               	goto	l2688
  2223     0A8F                     u3170:
  2224     0A8F                     l2686:
  2225                           
  2226                           ;Proyecto_Micros.c: 415:             ADCON0bits.GO = 1;
  2227     0A8F  149F               	bsf	31,1	;volatile
  2228     0A90                     l2688:	
  2229                           ;Proyecto_Micros.c: 416:             _delay((unsigned long)((2)*(500000/4000000.0)));
  2230                           
  2231                           
  2232                           ;Proyecto_Micros.c: 418:         valor_mapeado0 = map(adc00,0,255,30,60);
  2233     0A90  1283               	bcf	3,5	;RP0=0, select bank0
  2234     0A91  1303               	bcf	3,6	;RP1=0, select bank0
  2235     0A92  01BD               	clrf	map@rango_min
  2236     0A93  30FF               	movlw	255
  2237     0A94  00BE               	movwf	map@rango_max
  2238     0A95  301E               	movlw	30
  2239     0A96  00BF               	movwf	map@nuevo_min
  2240     0A97  303C               	movlw	60
  2241     0A98  00C0               	movwf	map@nuevo_max
  2242     0A99  1683               	bsf	3,5	;RP0=1, select bank1
  2243     0A9A  1303               	bcf	3,6	;RP1=0, select bank1
  2244     0A9B  0868               	movf	_adc00^(0+128),w
  2245     0A9C  160A  118A  2717  120A  158A  	fcall	_map
  2246     0AA1  1283               	bcf	3,5	;RP0=0, select bank0
  2247     0AA2  1303               	bcf	3,6	;RP1=0, select bank0
  2248     0AA3  00C5               	movwf	??_modo_manual
  2249     0AA4  01C6               	clrf	??_modo_manual+1
  2250     0AA5  0845               	movf	??_modo_manual,w
  2251     0AA6  00D3               	movwf	_valor_mapeado0
  2252     0AA7  0846               	movf	??_modo_manual+1,w
  2253     0AA8  00D4               	movwf	_valor_mapeado0+1
  2254                           
  2255                           ;Proyecto_Micros.c: 419:         valor_mapeado1 = map(adc01,0,255,30,43);
  2256     0AA9  01BD               	clrf	map@rango_min
  2257     0AAA  30FF               	movlw	255
  2258     0AAB  00BE               	movwf	map@rango_max
  2259     0AAC  301E               	movlw	30
  2260     0AAD  00BF               	movwf	map@nuevo_min
  2261     0AAE  302B               	movlw	43
  2262     0AAF  00C0               	movwf	map@nuevo_max
  2263     0AB0  1683               	bsf	3,5	;RP0=1, select bank1
  2264     0AB1  1303               	bcf	3,6	;RP1=0, select bank1
  2265     0AB2  0866               	movf	_adc01^(0+128),w
  2266     0AB3  160A  118A  2717  120A  158A  	fcall	_map
  2267     0AB8  1283               	bcf	3,5	;RP0=0, select bank0
  2268     0AB9  1303               	bcf	3,6	;RP1=0, select bank0
  2269     0ABA  00C5               	movwf	??_modo_manual
  2270     0ABB  01C6               	clrf	??_modo_manual+1
  2271     0ABC  0845               	movf	??_modo_manual,w
  2272     0ABD  1683               	bsf	3,5	;RP0=1, select bank1
  2273     0ABE  1303               	bcf	3,6	;RP1=0, select bank1
  2274     0ABF  00E0               	movwf	_valor_mapeado1^(0+128)
  2275     0AC0  1283               	bcf	3,5	;RP0=0, select bank0
  2276     0AC1  1303               	bcf	3,6	;RP1=0, select bank0
  2277     0AC2  0846               	movf	??_modo_manual+1,w
  2278     0AC3  1683               	bsf	3,5	;RP0=1, select bank1
  2279     0AC4  1303               	bcf	3,6	;RP1=0, select bank1
  2280     0AC5  00E1               	movwf	(_valor_mapeado1+1)^(0+128)
  2281                           
  2282                           ;Proyecto_Micros.c: 420:         valor_mapeado2 = map(adc10,0,255,20,80);
  2283     0AC6  1283               	bcf	3,5	;RP0=0, select bank0
  2284     0AC7  1303               	bcf	3,6	;RP1=0, select bank0
  2285     0AC8  01BD               	clrf	map@rango_min
  2286     0AC9  30FF               	movlw	255
  2287     0ACA  00BE               	movwf	map@rango_max
  2288     0ACB  3014               	movlw	20
  2289     0ACC  00BF               	movwf	map@nuevo_min
  2290     0ACD  3050               	movlw	80
  2291     0ACE  00C0               	movwf	map@nuevo_max
  2292     0ACF  1683               	bsf	3,5	;RP0=1, select bank1
  2293     0AD0  1303               	bcf	3,6	;RP1=0, select bank1
  2294     0AD1  0862               	movf	_adc10^(0+128),w
  2295     0AD2  160A  118A  2717  120A  158A  	fcall	_map
  2296     0AD7  1283               	bcf	3,5	;RP0=0, select bank0
  2297     0AD8  1303               	bcf	3,6	;RP1=0, select bank0
  2298     0AD9  00C5               	movwf	??_modo_manual
  2299     0ADA  01C6               	clrf	??_modo_manual+1
  2300     0ADB  0845               	movf	??_modo_manual,w
  2301     0ADC  1683               	bsf	3,5	;RP0=1, select bank1
  2302     0ADD  1303               	bcf	3,6	;RP1=0, select bank1
  2303     0ADE  00DE               	movwf	_valor_mapeado2^(0+128)
  2304     0ADF  1283               	bcf	3,5	;RP0=0, select bank0
  2305     0AE0  1303               	bcf	3,6	;RP1=0, select bank0
  2306     0AE1  0846               	movf	??_modo_manual+1,w
  2307     0AE2  1683               	bsf	3,5	;RP0=1, select bank1
  2308     0AE3  1303               	bcf	3,6	;RP1=0, select bank1
  2309     0AE4  00DF               	movwf	(_valor_mapeado2+1)^(0+128)
  2310                           
  2311                           ;Proyecto_Micros.c: 421:         valor_mapeado3 = map(adc11,0,255,25,60);
  2312     0AE5  1283               	bcf	3,5	;RP0=0, select bank0
  2313     0AE6  1303               	bcf	3,6	;RP1=0, select bank0
  2314     0AE7  01BD               	clrf	map@rango_min
  2315     0AE8  30FF               	movlw	255
  2316     0AE9  00BE               	movwf	map@rango_max
  2317     0AEA  3019               	movlw	25
  2318     0AEB  00BF               	movwf	map@nuevo_min
  2319     0AEC  303C               	movlw	60
  2320     0AED  00C0               	movwf	map@nuevo_max
  2321     0AEE  1683               	bsf	3,5	;RP0=1, select bank1
  2322     0AEF  1303               	bcf	3,6	;RP1=0, select bank1
  2323     0AF0  0864               	movf	_adc11^(0+128),w
  2324     0AF1  160A  118A  2717  120A  158A  	fcall	_map
  2325     0AF6  1283               	bcf	3,5	;RP0=0, select bank0
  2326     0AF7  1303               	bcf	3,6	;RP1=0, select bank0
  2327     0AF8  00C5               	movwf	??_modo_manual
  2328     0AF9  01C6               	clrf	??_modo_manual+1
  2329     0AFA  0845               	movf	??_modo_manual,w
  2330     0AFB  1683               	bsf	3,5	;RP0=1, select bank1
  2331     0AFC  1303               	bcf	3,6	;RP1=0, select bank1
  2332     0AFD  00DC               	movwf	_valor_mapeado3^(0+128)
  2333     0AFE  1283               	bcf	3,5	;RP0=0, select bank0
  2334     0AFF  1303               	bcf	3,6	;RP1=0, select bank0
  2335     0B00  0846               	movf	??_modo_manual+1,w
  2336     0B01  1683               	bsf	3,5	;RP0=1, select bank1
  2337     0B02  1303               	bcf	3,6	;RP1=0, select bank1
  2338     0B03  00DD               	movwf	(_valor_mapeado3+1)^(0+128)
  2339     0B04                     l2690:
  2340                           
  2341                           ;Proyecto_Micros.c: 423:         T2CONbits.TMR2ON = 0;
  2342     0B04  1283               	bcf	3,5	;RP0=0, select bank0
  2343     0B05  1303               	bcf	3,6	;RP1=0, select bank0
  2344     0B06  1112               	bcf	18,2	;volatile
  2345     0B07                     l2692:
  2346                           
  2347                           ;Proyecto_Micros.c: 424:         OSCCONbits.IRCF = 0b111;
  2348     0B07  3070               	movlw	112
  2349     0B08  1683               	bsf	3,5	;RP0=1, select bank1
  2350     0B09  1303               	bcf	3,6	;RP1=0, select bank1
  2351     0B0A  048F               	iorwf	15,f	;volatile
  2352     0B0B                     l2694:
  2353                           
  2354                           ;Proyecto_Micros.c: 425:         PWM_manual(valor_mapeado0, 0b1);
  2355     0B0B  1283               	bcf	3,5	;RP0=0, select bank0
  2356     0B0C  1303               	bcf	3,6	;RP1=0, select bank0
  2357     0B0D  0854               	movf	_valor_mapeado0+1,w
  2358     0B0E  00AF               	movwf	PWM_manual@limite_pot+1
  2359     0B0F  0853               	movf	_valor_mapeado0,w
  2360     0B10  00AE               	movwf	PWM_manual@limite_pot
  2361     0B11  3001               	movlw	1
  2362     0B12  00B0               	movwf	PWM_manual@puerto
  2363     0B13  3000               	movlw	0
  2364     0B14  00B1               	movwf	PWM_manual@puerto+1
  2365     0B15  160A  118A  2747  120A  158A  	fcall	_PWM_manual
  2366     0B1A                     l2696:
  2367                           
  2368                           ;Proyecto_Micros.c: 426:         PWM_manual(valor_mapeado3, 0b1000);
  2369     0B1A  1683               	bsf	3,5	;RP0=1, select bank1
  2370     0B1B  1303               	bcf	3,6	;RP1=0, select bank1
  2371     0B1C  085D               	movf	(_valor_mapeado3+1)^(0+128),w
  2372     0B1D  1283               	bcf	3,5	;RP0=0, select bank0
  2373     0B1E  1303               	bcf	3,6	;RP1=0, select bank0
  2374     0B1F  00AF               	movwf	PWM_manual@limite_pot+1
  2375     0B20  1683               	bsf	3,5	;RP0=1, select bank1
  2376     0B21  1303               	bcf	3,6	;RP1=0, select bank1
  2377     0B22  085C               	movf	_valor_mapeado3^(0+128),w
  2378     0B23  1283               	bcf	3,5	;RP0=0, select bank0
  2379     0B24  1303               	bcf	3,6	;RP1=0, select bank0
  2380     0B25  00AE               	movwf	PWM_manual@limite_pot
  2381     0B26  3008               	movlw	8
  2382     0B27  00B0               	movwf	PWM_manual@puerto
  2383     0B28  3000               	movlw	0
  2384     0B29  00B1               	movwf	PWM_manual@puerto+1
  2385     0B2A  160A  118A  2747  120A  158A  	fcall	_PWM_manual
  2386     0B2F                     l2698:
  2387                           
  2388                           ;Proyecto_Micros.c: 428:         OSCCONbits.IRCF = 0b011;
  2389     0B2F  1683               	bsf	3,5	;RP0=1, select bank1
  2390     0B30  1303               	bcf	3,6	;RP1=0, select bank1
  2391     0B31  080F               	movf	15,w	;volatile
  2392     0B32  398F               	andlw	-113
  2393     0B33  3830               	iorlw	48
  2394     0B34  008F               	movwf	15	;volatile
  2395     0B35                     l2700:
  2396                           
  2397                           ;Proyecto_Micros.c: 429:         T2CONbits.TMR2ON = 1;
  2398     0B35  1283               	bcf	3,5	;RP0=0, select bank0
  2399     0B36  1303               	bcf	3,6	;RP1=0, select bank0
  2400     0B37  1512               	bsf	18,2	;volatile
  2401                           
  2402                           ;Proyecto_Micros.c: 430:         PWM_duty(2,valor_mapeado1);
  2403     0B38  3002               	movlw	2
  2404     0B39  00AE               	movwf	PWM_duty@canal
  2405     0B3A  3000               	movlw	0
  2406     0B3B  00AF               	movwf	PWM_duty@canal+1
  2407     0B3C  1683               	bsf	3,5	;RP0=1, select bank1
  2408     0B3D  1303               	bcf	3,6	;RP1=0, select bank1
  2409     0B3E  0861               	movf	(_valor_mapeado1+1)^(0+128),w
  2410     0B3F  1283               	bcf	3,5	;RP0=0, select bank0
  2411     0B40  1303               	bcf	3,6	;RP1=0, select bank0
  2412     0B41  00B1               	movwf	PWM_duty@DutyCycle+1
  2413     0B42  1683               	bsf	3,5	;RP0=1, select bank1
  2414     0B43  1303               	bcf	3,6	;RP1=0, select bank1
  2415     0B44  0860               	movf	_valor_mapeado1^(0+128),w
  2416     0B45  1283               	bcf	3,5	;RP0=0, select bank0
  2417     0B46  1303               	bcf	3,6	;RP1=0, select bank0
  2418     0B47  00B0               	movwf	PWM_duty@DutyCycle
  2419     0B48  160A  118A  27B7  120A  158A  	fcall	_PWM_duty
  2420                           
  2421                           ;Proyecto_Micros.c: 431:         PWM_duty(1,valor_mapeado2);
  2422     0B4D  3001               	movlw	1
  2423     0B4E  1283               	bcf	3,5	;RP0=0, select bank0
  2424     0B4F  1303               	bcf	3,6	;RP1=0, select bank0
  2425     0B50  00AE               	movwf	PWM_duty@canal
  2426     0B51  3000               	movlw	0
  2427     0B52  00AF               	movwf	PWM_duty@canal+1
  2428     0B53  1683               	bsf	3,5	;RP0=1, select bank1
  2429     0B54  1303               	bcf	3,6	;RP1=0, select bank1
  2430     0B55  085F               	movf	(_valor_mapeado2+1)^(0+128),w
  2431     0B56  1283               	bcf	3,5	;RP0=0, select bank0
  2432     0B57  1303               	bcf	3,6	;RP1=0, select bank0
  2433     0B58  00B1               	movwf	PWM_duty@DutyCycle+1
  2434     0B59  1683               	bsf	3,5	;RP0=1, select bank1
  2435     0B5A  1303               	bcf	3,6	;RP1=0, select bank1
  2436     0B5B  085E               	movf	_valor_mapeado2^(0+128),w
  2437     0B5C  1283               	bcf	3,5	;RP0=0, select bank0
  2438     0B5D  1303               	bcf	3,6	;RP1=0, select bank0
  2439     0B5E  00B0               	movwf	PWM_duty@DutyCycle
  2440     0B5F  160A  118A  27B7  120A  158A  	fcall	_PWM_duty
  2441     0B64                     l2702:
  2442                           
  2443                           ;Proyecto_Micros.c: 433:         if (activador_modo == 0){
  2444     0B64  1283               	bcf	3,5	;RP0=0, select bank0
  2445     0B65  1303               	bcf	3,6	;RP1=0, select bank0
  2446     0B66  085A               	movf	_activador_modo,w
  2447     0B67  1D03               	btfss	3,2
  2448     0B68  2B6A               	goto	u3181
  2449     0B69  2B6B               	goto	u3180
  2450     0B6A                     u3181:
  2451     0B6A  2A89               	goto	l291
  2452     0B6B                     u3180:
  2453     0B6B                     l296:
  2454     0B6B  0008               	return
  2455     0B6C                     __end_of_modo_manual:
  2456                           
  2457                           	psect	text5
  2458     1717                     __ptext5:	
  2459 ;; *************** function _map *****************
  2460 ;; Defined at:
  2461 ;;		line 574 in file "Proyecto_Micros.c"
  2462 ;; Parameters:    Size  Location     Type
  2463 ;;  valor           1    wreg     unsigned char 
  2464 ;;  rango_min       1   29[BANK0 ] unsigned char 
  2465 ;;  rango_max       1   30[BANK0 ] unsigned char 
  2466 ;;  nuevo_min       1   31[BANK0 ] unsigned char 
  2467 ;;  nuevo_max       1   32[BANK0 ] unsigned char 
  2468 ;; Auto vars:     Size  Location     Type
  2469 ;;  valor           1   35[BANK0 ] unsigned char 
  2470 ;;  nuevo_valor     1   36[BANK0 ] unsigned char 
  2471 ;; Return value:  Size  Location     Type
  2472 ;;                  1    wreg      unsigned char 
  2473 ;; Registers used:
  2474 ;;		wreg, status,2, status,0, pclath, cstack
  2475 ;; Tracked objects:
  2476 ;;		On entry : 0/0
  2477 ;;		On exit  : 0/0
  2478 ;;		Unchanged: 0/0
  2479 ;; Data sizes:     COMMON   BANK0   BANK1   BANK3   BANK2
  2480 ;;      Params:         0       4       0       0       0
  2481 ;;      Locals:         0       2       0       0       0
  2482 ;;      Temps:          0       2       0       0       0
  2483 ;;      Totals:         0       8       0       0       0
  2484 ;;Total ram usage:        8 bytes
  2485 ;; Hardware stack levels used: 1
  2486 ;; Hardware stack levels required when called: 4
  2487 ;; This function calls:
  2488 ;;		___awdiv
  2489 ;;		___wmul
  2490 ;; This function is called by:
  2491 ;;		_modo_manual
  2492 ;; This function uses a non-reentrant model
  2493 ;;
  2494                           
  2495     1717                     _map:	
  2496                           ;psect for function _map
  2497                           
  2498                           
  2499                           ;incstack = 0
  2500                           ; Regs used in _map: [wreg+status,2+status,0+pclath+cstack]
  2501                           ;map@valor stored from wreg
  2502     1717  1283               	bcf	3,5	;RP0=0, select bank0
  2503     1718  1303               	bcf	3,6	;RP1=0, select bank0
  2504     1719  00C3               	movwf	map@valor
  2505     171A                     l2124:
  2506                           
  2507                           ;Proyecto_Micros.c: 575:     uint8_t nuevo_valor = nuevo_min + (valor - rango_min)*(nuev
      +                          o_max - nuevo_min)/(rango_max - rango_min);
  2508     171A  083D               	movf	map@rango_min,w
  2509     171B  023E               	subwf	map@rango_max,w
  2510     171C  00B4               	movwf	___awdiv@divisor
  2511     171D  01B5               	clrf	___awdiv@divisor+1
  2512     171E  1C03               	skipc
  2513     171F  03B5               	decf	___awdiv@divisor+1,f
  2514     1720  083D               	movf	map@rango_min,w
  2515     1721  0243               	subwf	map@valor,w
  2516     1722  00AE               	movwf	___wmul@multiplier
  2517     1723  01AF               	clrf	___wmul@multiplier+1
  2518     1724  1C03               	skipc
  2519     1725  03AF               	decf	___wmul@multiplier+1,f
  2520     1726  083F               	movf	map@nuevo_min,w
  2521     1727  0240               	subwf	map@nuevo_max,w
  2522     1728  00B0               	movwf	___wmul@multiplicand
  2523     1729  01B1               	clrf	___wmul@multiplicand+1
  2524     172A  1C03               	skipc
  2525     172B  03B1               	decf	___wmul@multiplicand+1,f
  2526     172C  160A  118A  2699  160A  118A  	fcall	___wmul
  2527     1731  1283               	bcf	3,5	;RP0=0, select bank0
  2528     1732  1303               	bcf	3,6	;RP1=0, select bank0
  2529     1733  082F               	movf	?___wmul+1,w
  2530     1734  00B7               	movwf	___awdiv@dividend+1
  2531     1735  082E               	movf	?___wmul,w
  2532     1736  00B6               	movwf	___awdiv@dividend
  2533     1737  120A  158A  206E  160A  118A  	fcall	___awdiv
  2534     173C  1283               	bcf	3,5	;RP0=0, select bank0
  2535     173D  1303               	bcf	3,6	;RP1=0, select bank0
  2536     173E  0834               	movf	?___awdiv,w
  2537     173F  00C1               	movwf	??_map
  2538     1740  0835               	movf	?___awdiv+1,w
  2539     1741  00C2               	movwf	??_map+1
  2540     1742  083F               	movf	map@nuevo_min,w
  2541     1743  0741               	addwf	??_map,w
  2542     1744  00C4               	movwf	map@nuevo_valor
  2543     1745                     l2126:
  2544                           
  2545                           ;Proyecto_Micros.c: 576:     return nuevo_valor;
  2546     1745  0844               	movf	map@nuevo_valor,w
  2547     1746                     l312:
  2548     1746  0008               	return
  2549     1747                     __end_of_map:
  2550                           
  2551                           	psect	text6
  2552     1699                     __ptext6:	
  2553 ;; *************** function ___wmul *****************
  2554 ;; Defined at:
  2555 ;;		line 15 in file "C:\Program Files\Microchip\xc8\v2.40\pic\sources\c90\common\Umul16.c"
  2556 ;; Parameters:    Size  Location     Type
  2557 ;;  multiplier      2   14[BANK0 ] unsigned int 
  2558 ;;  multiplicand    2   16[BANK0 ] unsigned int 
  2559 ;; Auto vars:     Size  Location     Type
  2560 ;;  product         2   18[BANK0 ] unsigned int 
  2561 ;; Return value:  Size  Location     Type
  2562 ;;                  2   14[BANK0 ] unsigned int 
  2563 ;; Registers used:
  2564 ;;		wreg, status,2, status,0
  2565 ;; Tracked objects:
  2566 ;;		On entry : 0/0
  2567 ;;		On exit  : 0/0
  2568 ;;		Unchanged: 0/0
  2569 ;; Data sizes:     COMMON   BANK0   BANK1   BANK3   BANK2
  2570 ;;      Params:         0       4       0       0       0
  2571 ;;      Locals:         0       2       0       0       0
  2572 ;;      Temps:          0       0       0       0       0
  2573 ;;      Totals:         0       6       0       0       0
  2574 ;;Total ram usage:        6 bytes
  2575 ;; Hardware stack levels used: 1
  2576 ;; Hardware stack levels required when called: 3
  2577 ;; This function calls:
  2578 ;;		Nothing
  2579 ;; This function is called by:
  2580 ;;		_map
  2581 ;; This function uses a non-reentrant model
  2582 ;;
  2583                           
  2584     1699                     ___wmul:	
  2585                           ;psect for function ___wmul
  2586                           
  2587     1699                     l2052:	
  2588                           ;incstack = 0
  2589                           ; Regs used in ___wmul: [wreg+status,2+status,0]
  2590                           
  2591     1699  1283               	bcf	3,5	;RP0=0, select bank0
  2592     169A  1303               	bcf	3,6	;RP1=0, select bank0
  2593     169B  01B2               	clrf	___wmul@product
  2594     169C  01B3               	clrf	___wmul@product+1
  2595     169D                     l2054:
  2596     169D  1C2E               	btfss	___wmul@multiplier,0
  2597     169E  2EA0               	goto	u1961
  2598     169F  2EA1               	goto	u1960
  2599     16A0                     u1961:
  2600     16A0  2EA7               	goto	l466
  2601     16A1                     u1960:
  2602     16A1                     l2056:
  2603     16A1  0830               	movf	___wmul@multiplicand,w
  2604     16A2  07B2               	addwf	___wmul@product,f
  2605     16A3  1803               	skipnc
  2606     16A4  0AB3               	incf	___wmul@product+1,f
  2607     16A5  0831               	movf	___wmul@multiplicand+1,w
  2608     16A6  07B3               	addwf	___wmul@product+1,f
  2609     16A7                     l466:
  2610     16A7  3001               	movlw	1
  2611     16A8                     u1975:
  2612     16A8  1003               	clrc
  2613     16A9  0DB0               	rlf	___wmul@multiplicand,f
  2614     16AA  0DB1               	rlf	___wmul@multiplicand+1,f
  2615     16AB  3EFF               	addlw	-1
  2616     16AC  1D03               	skipz
  2617     16AD  2EA8               	goto	u1975
  2618     16AE                     l2058:
  2619     16AE  3001               	movlw	1
  2620     16AF                     u1985:
  2621     16AF  1003               	clrc
  2622     16B0  0CAF               	rrf	___wmul@multiplier+1,f
  2623     16B1  0CAE               	rrf	___wmul@multiplier,f
  2624     16B2  3EFF               	addlw	-1
  2625     16B3  1D03               	skipz
  2626     16B4  2EAF               	goto	u1985
  2627     16B5                     l2060:
  2628     16B5  082E               	movf	___wmul@multiplier,w
  2629     16B6  042F               	iorwf	___wmul@multiplier+1,w
  2630     16B7  1D03               	btfss	3,2
  2631     16B8  2EBA               	goto	u1991
  2632     16B9  2EBB               	goto	u1990
  2633     16BA                     u1991:
  2634     16BA  2E9D               	goto	l2054
  2635     16BB                     u1990:
  2636     16BB                     l2062:
  2637     16BB  0833               	movf	___wmul@product+1,w
  2638     16BC  00AF               	movwf	?___wmul+1
  2639     16BD  0832               	movf	___wmul@product,w
  2640     16BE  00AE               	movwf	?___wmul
  2641     16BF                     l468:
  2642     16BF  0008               	return
  2643     16C0                     __end_of___wmul:
  2644                           
  2645                           	psect	text7
  2646     086E                     __ptext7:	
  2647 ;; *************** function ___awdiv *****************
  2648 ;; Defined at:
  2649 ;;		line 5 in file "C:\Program Files\Microchip\xc8\v2.40\pic\sources\c90\common\awdiv.c"
  2650 ;; Parameters:    Size  Location     Type
  2651 ;;  divisor         2   20[BANK0 ] int 
  2652 ;;  dividend        2   22[BANK0 ] int 
  2653 ;; Auto vars:     Size  Location     Type
  2654 ;;  quotient        2   27[BANK0 ] int 
  2655 ;;  sign            1   26[BANK0 ] unsigned char 
  2656 ;;  counter         1   25[BANK0 ] unsigned char 
  2657 ;; Return value:  Size  Location     Type
  2658 ;;                  2   20[BANK0 ] int 
  2659 ;; Registers used:
  2660 ;;		wreg, status,2, status,0
  2661 ;; Tracked objects:
  2662 ;;		On entry : 0/0
  2663 ;;		On exit  : 0/0
  2664 ;;		Unchanged: 0/0
  2665 ;; Data sizes:     COMMON   BANK0   BANK1   BANK3   BANK2
  2666 ;;      Params:         0       4       0       0       0
  2667 ;;      Locals:         0       4       0       0       0
  2668 ;;      Temps:          0       1       0       0       0
  2669 ;;      Totals:         0       9       0       0       0
  2670 ;;Total ram usage:        9 bytes
  2671 ;; Hardware stack levels used: 1
  2672 ;; Hardware stack levels required when called: 3
  2673 ;; This function calls:
  2674 ;;		Nothing
  2675 ;; This function is called by:
  2676 ;;		_map
  2677 ;; This function uses a non-reentrant model
  2678 ;;
  2679                           
  2680     086E                     ___awdiv:	
  2681                           ;psect for function ___awdiv
  2682                           
  2683     086E                     l2066:	
  2684                           ;incstack = 0
  2685                           ; Regs used in ___awdiv: [wreg+status,2+status,0]
  2686                           
  2687     086E  1283               	bcf	3,5	;RP0=0, select bank0
  2688     086F  1303               	bcf	3,6	;RP1=0, select bank0
  2689     0870  01BA               	clrf	___awdiv@sign
  2690     0871                     l2068:
  2691     0871  1FB5               	btfss	___awdiv@divisor+1,7
  2692     0872  2874               	goto	u2001
  2693     0873  2875               	goto	u2000
  2694     0874                     u2001:
  2695     0874  287C               	goto	l2074
  2696     0875                     u2000:
  2697     0875                     l2070:
  2698     0875  09B4               	comf	___awdiv@divisor,f
  2699     0876  09B5               	comf	___awdiv@divisor+1,f
  2700     0877  0AB4               	incf	___awdiv@divisor,f
  2701     0878  1903               	skipnz
  2702     0879  0AB5               	incf	___awdiv@divisor+1,f
  2703     087A                     l2072:
  2704     087A  01BA               	clrf	___awdiv@sign
  2705     087B  0ABA               	incf	___awdiv@sign,f
  2706     087C                     l2074:
  2707     087C  1FB7               	btfss	___awdiv@dividend+1,7
  2708     087D  287F               	goto	u2011
  2709     087E  2880               	goto	u2010
  2710     087F                     u2011:
  2711     087F  2889               	goto	l2080
  2712     0880                     u2010:
  2713     0880                     l2076:
  2714     0880  09B6               	comf	___awdiv@dividend,f
  2715     0881  09B7               	comf	___awdiv@dividend+1,f
  2716     0882  0AB6               	incf	___awdiv@dividend,f
  2717     0883  1903               	skipnz
  2718     0884  0AB7               	incf	___awdiv@dividend+1,f
  2719     0885                     l2078:
  2720     0885  3001               	movlw	1
  2721     0886  00B8               	movwf	??___awdiv
  2722     0887  0838               	movf	??___awdiv,w
  2723     0888  06BA               	xorwf	___awdiv@sign,f
  2724     0889                     l2080:
  2725     0889  01BB               	clrf	___awdiv@quotient
  2726     088A  01BC               	clrf	___awdiv@quotient+1
  2727     088B                     l2082:
  2728     088B  0834               	movf	___awdiv@divisor,w
  2729     088C  0435               	iorwf	___awdiv@divisor+1,w
  2730     088D  1903               	btfsc	3,2
  2731     088E  2890               	goto	u2021
  2732     088F  2891               	goto	u2020
  2733     0890                     u2021:
  2734     0890  28C8               	goto	l2102
  2735     0891                     u2020:
  2736     0891                     l2084:
  2737     0891  01B9               	clrf	___awdiv@counter
  2738     0892  0AB9               	incf	___awdiv@counter,f
  2739     0893  289F               	goto	l2090
  2740     0894                     l2086:
  2741     0894  3001               	movlw	1
  2742     0895                     u2035:
  2743     0895  1003               	clrc
  2744     0896  0DB4               	rlf	___awdiv@divisor,f
  2745     0897  0DB5               	rlf	___awdiv@divisor+1,f
  2746     0898  3EFF               	addlw	-1
  2747     0899  1D03               	skipz
  2748     089A  2895               	goto	u2035
  2749     089B                     l2088:
  2750     089B  3001               	movlw	1
  2751     089C  00B8               	movwf	??___awdiv
  2752     089D  0838               	movf	??___awdiv,w
  2753     089E  07B9               	addwf	___awdiv@counter,f
  2754     089F                     l2090:
  2755     089F  1FB5               	btfss	___awdiv@divisor+1,7
  2756     08A0  28A2               	goto	u2041
  2757     08A1  28A3               	goto	u2040
  2758     08A2                     u2041:
  2759     08A2  2894               	goto	l2086
  2760     08A3                     u2040:
  2761     08A3                     l2092:
  2762     08A3  3001               	movlw	1
  2763     08A4                     u2055:
  2764     08A4  1003               	clrc
  2765     08A5  0DBB               	rlf	___awdiv@quotient,f
  2766     08A6  0DBC               	rlf	___awdiv@quotient+1,f
  2767     08A7  3EFF               	addlw	-1
  2768     08A8  1D03               	skipz
  2769     08A9  28A4               	goto	u2055
  2770     08AA  0835               	movf	___awdiv@divisor+1,w
  2771     08AB  0237               	subwf	___awdiv@dividend+1,w
  2772     08AC  1D03               	skipz
  2773     08AD  28B0               	goto	u2065
  2774     08AE  0834               	movf	___awdiv@divisor,w
  2775     08AF  0236               	subwf	___awdiv@dividend,w
  2776     08B0                     u2065:
  2777     08B0  1C03               	skipc
  2778     08B1  28B3               	goto	u2061
  2779     08B2  28B4               	goto	u2060
  2780     08B3                     u2061:
  2781     08B3  28BB               	goto	l2098
  2782     08B4                     u2060:
  2783     08B4                     l2094:
  2784     08B4  0834               	movf	___awdiv@divisor,w
  2785     08B5  02B6               	subwf	___awdiv@dividend,f
  2786     08B6  0835               	movf	___awdiv@divisor+1,w
  2787     08B7  1C03               	skipc
  2788     08B8  03B7               	decf	___awdiv@dividend+1,f
  2789     08B9  02B7               	subwf	___awdiv@dividend+1,f
  2790     08BA                     l2096:
  2791     08BA  143B               	bsf	___awdiv@quotient,0
  2792     08BB                     l2098:
  2793     08BB  3001               	movlw	1
  2794     08BC                     u2075:
  2795     08BC  1003               	clrc
  2796     08BD  0CB5               	rrf	___awdiv@divisor+1,f
  2797     08BE  0CB4               	rrf	___awdiv@divisor,f
  2798     08BF  3EFF               	addlw	-1
  2799     08C0  1D03               	skipz
  2800     08C1  28BC               	goto	u2075
  2801     08C2                     l2100:
  2802     08C2  3001               	movlw	1
  2803     08C3  02B9               	subwf	___awdiv@counter,f
  2804     08C4  1D03               	btfss	3,2
  2805     08C5  28C7               	goto	u2081
  2806     08C6  28C8               	goto	u2080
  2807     08C7                     u2081:
  2808     08C7  28A3               	goto	l2092
  2809     08C8                     u2080:
  2810     08C8                     l2102:
  2811     08C8  083A               	movf	___awdiv@sign,w
  2812     08C9  1903               	btfsc	3,2
  2813     08CA  28CC               	goto	u2091
  2814     08CB  28CD               	goto	u2090
  2815     08CC                     u2091:
  2816     08CC  28D2               	goto	l2106
  2817     08CD                     u2090:
  2818     08CD                     l2104:
  2819     08CD  09BB               	comf	___awdiv@quotient,f
  2820     08CE  09BC               	comf	___awdiv@quotient+1,f
  2821     08CF  0ABB               	incf	___awdiv@quotient,f
  2822     08D0  1903               	skipnz
  2823     08D1  0ABC               	incf	___awdiv@quotient+1,f
  2824     08D2                     l2106:
  2825     08D2  083C               	movf	___awdiv@quotient+1,w
  2826     08D3  00B5               	movwf	?___awdiv+1
  2827     08D4  083B               	movf	___awdiv@quotient,w
  2828     08D5  00B4               	movwf	?___awdiv
  2829     08D6                     l619:
  2830     08D6  0008               	return
  2831     08D7                     __end_of___awdiv:
  2832                           
  2833                           	psect	text8
  2834     08D7                     __ptext8:	
  2835 ;; *************** function _modo_automatico *****************
  2836 ;; Defined at:
  2837 ;;		line 390 in file "Proyecto_Micros.c"
  2838 ;; Parameters:    Size  Location     Type
  2839 ;;		None
  2840 ;; Auto vars:     Size  Location     Type
  2841 ;;		None
  2842 ;; Return value:  Size  Location     Type
  2843 ;;                  1    wreg      void 
  2844 ;; Registers used:
  2845 ;;		wreg, status,2, status,0, pclath, cstack
  2846 ;; Tracked objects:
  2847 ;;		On entry : 0/0
  2848 ;;		On exit  : 0/0
  2849 ;;		Unchanged: 0/0
  2850 ;; Data sizes:     COMMON   BANK0   BANK1   BANK3   BANK2
  2851 ;;      Params:         0       0       0       0       0
  2852 ;;      Locals:         0       0       0       0       0
  2853 ;;      Temps:          0       2       0       0       0
  2854 ;;      Totals:         0       2       0       0       0
  2855 ;;Total ram usage:        2 bytes
  2856 ;; Hardware stack levels used: 1
  2857 ;; Hardware stack levels required when called: 4
  2858 ;; This function calls:
  2859 ;;		_PWM_duty
  2860 ;;		_PWM_manual
  2861 ;; This function is called by:
  2862 ;;		_main
  2863 ;; This function uses a non-reentrant model
  2864 ;;
  2865                           
  2866     08D7                     _modo_automatico:	
  2867                           ;psect for function _modo_automatico
  2868                           
  2869     08D7                     l284:	
  2870                           ;incstack = 0
  2871                           ; Regs used in _modo_automatico: [wreg+status,2+status,0+pclath+cstack]
  2872                           ;Proyecto_Micros.c: 391:     while (1){
  2873                           
  2874                           
  2875                           ;Proyecto_Micros.c: 392:         T2CONbits.TMR2ON = 0;
  2876     08D7  1283               	bcf	3,5	;RP0=0, select bank0
  2877     08D8  1303               	bcf	3,6	;RP1=0, select bank0
  2878     08D9  1112               	bcf	18,2	;volatile
  2879     08DA                     l2664:
  2880                           
  2881                           ;Proyecto_Micros.c: 393:         OSCCONbits.IRCF = 0b111;
  2882     08DA  3070               	movlw	112
  2883     08DB  1683               	bsf	3,5	;RP0=1, select bank1
  2884     08DC  1303               	bcf	3,6	;RP1=0, select bank1
  2885     08DD  048F               	iorwf	15,f	;volatile
  2886     08DE                     l2666:
  2887                           
  2888                           ;Proyecto_Micros.c: 394:         PWM_manual(valor_mapeado0, 0b1);
  2889     08DE  1283               	bcf	3,5	;RP0=0, select bank0
  2890     08DF  1303               	bcf	3,6	;RP1=0, select bank0
  2891     08E0  0854               	movf	_valor_mapeado0+1,w
  2892     08E1  00AF               	movwf	PWM_manual@limite_pot+1
  2893     08E2  0853               	movf	_valor_mapeado0,w
  2894     08E3  00AE               	movwf	PWM_manual@limite_pot
  2895     08E4  3001               	movlw	1
  2896     08E5  00B0               	movwf	PWM_manual@puerto
  2897     08E6  3000               	movlw	0
  2898     08E7  00B1               	movwf	PWM_manual@puerto+1
  2899     08E8  160A  118A  2747  120A  158A  	fcall	_PWM_manual
  2900     08ED                     l2668:
  2901                           
  2902                           ;Proyecto_Micros.c: 395:         PWM_manual(valor_mapeado3, 0b1000);
  2903     08ED  1683               	bsf	3,5	;RP0=1, select bank1
  2904     08EE  1303               	bcf	3,6	;RP1=0, select bank1
  2905     08EF  085D               	movf	(_valor_mapeado3+1)^(0+128),w
  2906     08F0  1283               	bcf	3,5	;RP0=0, select bank0
  2907     08F1  1303               	bcf	3,6	;RP1=0, select bank0
  2908     08F2  00AF               	movwf	PWM_manual@limite_pot+1
  2909     08F3  1683               	bsf	3,5	;RP0=1, select bank1
  2910     08F4  1303               	bcf	3,6	;RP1=0, select bank1
  2911     08F5  085C               	movf	_valor_mapeado3^(0+128),w
  2912     08F6  1283               	bcf	3,5	;RP0=0, select bank0
  2913     08F7  1303               	bcf	3,6	;RP1=0, select bank0
  2914     08F8  00AE               	movwf	PWM_manual@limite_pot
  2915     08F9  3008               	movlw	8
  2916     08FA  00B0               	movwf	PWM_manual@puerto
  2917     08FB  3000               	movlw	0
  2918     08FC  00B1               	movwf	PWM_manual@puerto+1
  2919     08FD  160A  118A  2747  120A  158A  	fcall	_PWM_manual
  2920                           
  2921                           ;Proyecto_Micros.c: 397:         OSCCONbits.IRCF = 0b011;
  2922     0902  1683               	bsf	3,5	;RP0=1, select bank1
  2923     0903  1303               	bcf	3,6	;RP1=0, select bank1
  2924     0904  080F               	movf	15,w	;volatile
  2925     0905  398F               	andlw	-113
  2926     0906  3830               	iorlw	48
  2927     0907  008F               	movwf	15	;volatile
  2928     0908                     l2670:
  2929                           
  2930                           ;Proyecto_Micros.c: 398:         T2CONbits.TMR2ON = 1;
  2931     0908  1283               	bcf	3,5	;RP0=0, select bank0
  2932     0909  1303               	bcf	3,6	;RP1=0, select bank0
  2933     090A  1512               	bsf	18,2	;volatile
  2934     090B                     l2672:
  2935                           
  2936                           ;Proyecto_Micros.c: 399:         PWM_duty(2,valor_mapeado1);
  2937     090B  3002               	movlw	2
  2938     090C  00AE               	movwf	PWM_duty@canal
  2939     090D  3000               	movlw	0
  2940     090E  00AF               	movwf	PWM_duty@canal+1
  2941     090F  1683               	bsf	3,5	;RP0=1, select bank1
  2942     0910  1303               	bcf	3,6	;RP1=0, select bank1
  2943     0911  0861               	movf	(_valor_mapeado1+1)^(0+128),w
  2944     0912  1283               	bcf	3,5	;RP0=0, select bank0
  2945     0913  1303               	bcf	3,6	;RP1=0, select bank0
  2946     0914  00B1               	movwf	PWM_duty@DutyCycle+1
  2947     0915  1683               	bsf	3,5	;RP0=1, select bank1
  2948     0916  1303               	bcf	3,6	;RP1=0, select bank1
  2949     0917  0860               	movf	_valor_mapeado1^(0+128),w
  2950     0918  1283               	bcf	3,5	;RP0=0, select bank0
  2951     0919  1303               	bcf	3,6	;RP1=0, select bank0
  2952     091A  00B0               	movwf	PWM_duty@DutyCycle
  2953     091B  160A  118A  27B7  120A  158A  	fcall	_PWM_duty
  2954     0920                     l2674:
  2955                           
  2956                           ;Proyecto_Micros.c: 400:         PWM_duty(1,valor_mapeado2);
  2957     0920  3001               	movlw	1
  2958     0921  1283               	bcf	3,5	;RP0=0, select bank0
  2959     0922  1303               	bcf	3,6	;RP1=0, select bank0
  2960     0923  00AE               	movwf	PWM_duty@canal
  2961     0924  3000               	movlw	0
  2962     0925  00AF               	movwf	PWM_duty@canal+1
  2963     0926  1683               	bsf	3,5	;RP0=1, select bank1
  2964     0927  1303               	bcf	3,6	;RP1=0, select bank1
  2965     0928  085F               	movf	(_valor_mapeado2+1)^(0+128),w
  2966     0929  1283               	bcf	3,5	;RP0=0, select bank0
  2967     092A  1303               	bcf	3,6	;RP1=0, select bank0
  2968     092B  00B1               	movwf	PWM_duty@DutyCycle+1
  2969     092C  1683               	bsf	3,5	;RP0=1, select bank1
  2970     092D  1303               	bcf	3,6	;RP1=0, select bank1
  2971     092E  085E               	movf	_valor_mapeado2^(0+128),w
  2972     092F  1283               	bcf	3,5	;RP0=0, select bank0
  2973     0930  1303               	bcf	3,6	;RP1=0, select bank0
  2974     0931  00B0               	movwf	PWM_duty@DutyCycle
  2975     0932  160A  118A  27B7  120A  158A  	fcall	_PWM_duty
  2976     0937                     l2676:
  2977                           
  2978                           ;Proyecto_Micros.c: 402:         _delay((unsigned long)((20)*(500000/4000.0)));
  2979     0937  3004               	movlw	4
  2980     0938  1283               	bcf	3,5	;RP0=0, select bank0
  2981     0939  1303               	bcf	3,6	;RP1=0, select bank0
  2982     093A  00B5               	movwf	??_modo_automatico+1
  2983     093B  303D               	movlw	61
  2984     093C  00B4               	movwf	??_modo_automatico
  2985     093D                     u4547:
  2986     093D  0BB4               	decfsz	??_modo_automatico,f
  2987     093E  293D               	goto	u4547
  2988     093F  0BB5               	decfsz	??_modo_automatico+1,f
  2989     0940  293D               	goto	u4547
  2990     0941                     l2678:
  2991                           
  2992                           ;Proyecto_Micros.c: 403:         T2CONbits.TMR2ON = 0;
  2993     0941  1283               	bcf	3,5	;RP0=0, select bank0
  2994     0942  1303               	bcf	3,6	;RP1=0, select bank0
  2995     0943  1112               	bcf	18,2	;volatile
  2996     0944                     l2680:
  2997                           
  2998                           ;Proyecto_Micros.c: 404:         OSCCONbits.IRCF = 0b111;
  2999     0944  3070               	movlw	112
  3000     0945  1683               	bsf	3,5	;RP0=1, select bank1
  3001     0946  1303               	bcf	3,6	;RP1=0, select bank1
  3002     0947  048F               	iorwf	15,f	;volatile
  3003     0948                     l2682:
  3004                           
  3005                           ;Proyecto_Micros.c: 406:         if (activador_modo == 0){
  3006     0948  1283               	bcf	3,5	;RP0=0, select bank0
  3007     0949  1303               	bcf	3,6	;RP1=0, select bank0
  3008     094A  085A               	movf	_activador_modo,w
  3009     094B  1D03               	btfss	3,2
  3010     094C  294E               	goto	u3161
  3011     094D  294F               	goto	u3160
  3012     094E                     u3161:
  3013     094E  28D7               	goto	l284
  3014     094F                     u3160:
  3015     094F                     l288:
  3016     094F  0008               	return
  3017     0950                     __end_of_modo_automatico:
  3018                           
  3019                           	psect	text9
  3020     1747                     __ptext9:	
  3021 ;; *************** function _PWM_manual *****************
  3022 ;; Defined at:
  3023 ;;		line 79 in file "PWM_Library.c"
  3024 ;; Parameters:    Size  Location     Type
  3025 ;;  limite_pot      2   14[BANK0 ] int 
  3026 ;;  puerto          2   16[BANK0 ] int 
  3027 ;; Auto vars:     Size  Location     Type
  3028 ;;		None
  3029 ;; Return value:  Size  Location     Type
  3030 ;;                  1    wreg      void 
  3031 ;; Registers used:
  3032 ;;		wreg, status,2, status,0
  3033 ;; Tracked objects:
  3034 ;;		On entry : 0/0
  3035 ;;		On exit  : 0/0
  3036 ;;		Unchanged: 0/0
  3037 ;; Data sizes:     COMMON   BANK0   BANK1   BANK3   BANK2
  3038 ;;      Params:         0       4       0       0       0
  3039 ;;      Locals:         0       0       0       0       0
  3040 ;;      Temps:          0       1       0       0       0
  3041 ;;      Totals:         0       5       0       0       0
  3042 ;;Total ram usage:        5 bytes
  3043 ;; Hardware stack levels used: 1
  3044 ;; Hardware stack levels required when called: 3
  3045 ;; This function calls:
  3046 ;;		Nothing
  3047 ;; This function is called by:
  3048 ;;		_modo_automatico
  3049 ;;		_modo_manual
  3050 ;;		_modo_uart
  3051 ;; This function uses a non-reentrant model
  3052 ;;
  3053                           
  3054     1747                     _PWM_manual:	
  3055                           ;psect for function _PWM_manual
  3056                           
  3057     1747                     l2130:	
  3058                           ;incstack = 0
  3059                           ; Regs used in _PWM_manual: [wreg+status,2+status,0]
  3060                           
  3061                           
  3062                           ;PWM_Library.c: 81:     PORTC = puerto;
  3063     1747  1283               	bcf	3,5	;RP0=0, select bank0
  3064     1748  1303               	bcf	3,6	;RP1=0, select bank0
  3065     1749  0830               	movf	PWM_manual@puerto,w
  3066     174A  0087               	movwf	7	;volatile
  3067     174B                     l2132:
  3068                           
  3069                           ;PWM_Library.c: 83:         if (T0IF){
  3070     174B  1D0B               	btfss	11,2	;volatile
  3071     174C  2F4E               	goto	u2131
  3072     174D  2F4F               	goto	u2130
  3073     174E                     u2131:
  3074     174E  2F5F               	goto	l2138
  3075     174F                     u2130:
  3076     174F                     l2134:
  3077                           
  3078                           ;PWM_Library.c: 84:             cont = cont + 2;
  3079     174F  1683               	bsf	3,5	;RP0=1, select bank1
  3080     1750  1303               	bcf	3,6	;RP1=0, select bank1
  3081     1751  085A               	movf	_cont^(0+128),w
  3082     1752  3E02               	addlw	2
  3083     1753  00DA               	movwf	_cont^(0+128)
  3084     1754  085B               	movf	(_cont+1)^(0+128),w
  3085     1755  1803               	skipnc
  3086     1756  3E01               	addlw	1
  3087     1757  3E00               	addlw	0
  3088     1758  00DB               	movwf	(_cont+1)^(0+128)
  3089                           
  3090                           ;PWM_Library.c: 85:             TMR0 = 256-preload;
  3091     1759  0858               	movf	_preload^(0+128),w
  3092     175A  3C00               	sublw	0
  3093     175B  1283               	bcf	3,5	;RP0=0, select bank0
  3094     175C  1303               	bcf	3,6	;RP1=0, select bank0
  3095     175D  0081               	movwf	1	;volatile
  3096     175E                     l2136:
  3097                           
  3098                           ;PWM_Library.c: 86:             T0IF = 0;
  3099     175E  110B               	bcf	11,2	;volatile
  3100     175F                     l2138:
  3101                           
  3102                           ;PWM_Library.c: 88:         if (cont >= limite_pot){
  3103     175F  1683               	bsf	3,5	;RP0=1, select bank1
  3104     1760  1303               	bcf	3,6	;RP1=0, select bank1
  3105     1761  085B               	movf	(_cont+1)^(0+128),w
  3106     1762  3A80               	xorlw	128
  3107     1763  1283               	bcf	3,5	;RP0=0, select bank0
  3108     1764  1303               	bcf	3,6	;RP1=0, select bank0
  3109     1765  00B2               	movwf	??_PWM_manual
  3110     1766  082F               	movf	PWM_manual@limite_pot+1,w
  3111     1767  3A80               	xorlw	128
  3112     1768  0232               	subwf	??_PWM_manual,w
  3113     1769  1D03               	skipz
  3114     176A  2F6F               	goto	u2145
  3115     176B  082E               	movf	PWM_manual@limite_pot,w
  3116     176C  1683               	bsf	3,5	;RP0=1, select bank1
  3117     176D  1303               	bcf	3,6	;RP1=0, select bank1
  3118     176E  025A               	subwf	_cont^(0+128),w
  3119     176F                     u2145:
  3120     176F  1C03               	skipc
  3121     1770  2F72               	goto	u2141
  3122     1771  2F73               	goto	u2140
  3123     1772                     u2141:
  3124     1772  2F4B               	goto	l2132
  3125     1773                     u2140:
  3126     1773                     l2140:
  3127                           
  3128                           ;PWM_Library.c: 89:             cont = 0;
  3129     1773  1683               	bsf	3,5	;RP0=1, select bank1
  3130     1774  1303               	bcf	3,6	;RP1=0, select bank1
  3131     1775  01DA               	clrf	_cont^(0+128)
  3132     1776  01DB               	clrf	(_cont+1)^(0+128)
  3133                           
  3134                           ;PWM_Library.c: 90:             PORTC = 0;
  3135     1777  1283               	bcf	3,5	;RP0=0, select bank0
  3136     1778  1303               	bcf	3,6	;RP1=0, select bank0
  3137     1779  0187               	clrf	7	;volatile
  3138     177A                     l380:	
  3139                           ;PWM_Library.c: 91:             break;
  3140                           
  3141     177A  0008               	return
  3142     177B                     __end_of_PWM_manual:
  3143                           
  3144                           	psect	text10
  3145     17B7                     __ptext10:	
  3146 ;; *************** function _PWM_duty *****************
  3147 ;; Defined at:
  3148 ;;		line 50 in file "PWM_Library.c"
  3149 ;; Parameters:    Size  Location     Type
  3150 ;;  canal           2   14[BANK0 ] int 
  3151 ;;  DutyCycle       2   16[BANK0 ] int 
  3152 ;; Auto vars:     Size  Location     Type
  3153 ;;		None
  3154 ;; Return value:  Size  Location     Type
  3155 ;;                  1    wreg      void 
  3156 ;; Registers used:
  3157 ;;		wreg, status,2, status,0
  3158 ;; Tracked objects:
  3159 ;;		On entry : 0/0
  3160 ;;		On exit  : 0/0
  3161 ;;		Unchanged: 0/0
  3162 ;; Data sizes:     COMMON   BANK0   BANK1   BANK3   BANK2
  3163 ;;      Params:         0       4       0       0       0
  3164 ;;      Locals:         0       0       0       0       0
  3165 ;;      Temps:          0       2       0       0       0
  3166 ;;      Totals:         0       6       0       0       0
  3167 ;;Total ram usage:        6 bytes
  3168 ;; Hardware stack levels used: 1
  3169 ;; Hardware stack levels required when called: 3
  3170 ;; This function calls:
  3171 ;;		Nothing
  3172 ;; This function is called by:
  3173 ;;		_modo_automatico
  3174 ;;		_modo_manual
  3175 ;;		_modo_uart
  3176 ;; This function uses a non-reentrant model
  3177 ;;
  3178                           
  3179     17B7                     _PWM_duty:	
  3180                           ;psect for function _PWM_duty
  3181                           
  3182     17B7                     l2142:	
  3183                           ;incstack = 0
  3184                           ; Regs used in _PWM_duty: [wreg+status,2+status,0]
  3185                           
  3186                           
  3187                           ;PWM_Library.c: 51:     if (canal == 1){
  3188     17B7  1283               	bcf	3,5	;RP0=0, select bank0
  3189     17B8  1303               	bcf	3,6	;RP1=0, select bank0
  3190     17B9  032E               	decf	PWM_duty@canal,w
  3191     17BA  042F               	iorwf	PWM_duty@canal+1,w
  3192     17BB  1D03               	btfss	3,2
  3193     17BC  2FBE               	goto	u2151
  3194     17BD  2FBF               	goto	u2150
  3195     17BE                     u2151:
  3196     17BE  2FDC               	goto	l2150
  3197     17BF                     u2150:
  3198     17BF                     l2144:
  3199                           
  3200                           ;PWM_Library.c: 52:     CCPR1L = DutyCycle>>2;
  3201     17BF  0831               	movf	PWM_duty@DutyCycle+1,w
  3202     17C0  00B3               	movwf	??_PWM_duty+1
  3203     17C1  0830               	movf	PWM_duty@DutyCycle,w
  3204     17C2  00B2               	movwf	??_PWM_duty
  3205     17C3  0D33               	rlf	??_PWM_duty+1,w
  3206     17C4  0CB3               	rrf	??_PWM_duty+1,f
  3207     17C5  0CB2               	rrf	??_PWM_duty,f
  3208     17C6  0D33               	rlf	??_PWM_duty+1,w
  3209     17C7  0CB3               	rrf	??_PWM_duty+1,f
  3210     17C8  0CB2               	rrf	??_PWM_duty,f
  3211     17C9  0832               	movf	??_PWM_duty,w
  3212     17CA  0095               	movwf	21	;volatile
  3213     17CB                     l2146:
  3214                           
  3215                           ;PWM_Library.c: 53:     CCP1CON = CCP1CON&0xCF;
  3216     17CB  0817               	movf	23,w	;volatile
  3217     17CC  39CF               	andlw	207
  3218     17CD  0097               	movwf	23	;volatile
  3219     17CE                     l2148:
  3220                           
  3221                           ;PWM_Library.c: 54:     CCP1CON = CCP1CON|(0x30&(DutyCycle<<4));
  3222     17CE  0830               	movf	PWM_duty@DutyCycle,w
  3223     17CF  00B2               	movwf	??_PWM_duty
  3224     17D0  3003               	movlw	3
  3225     17D1                     u2165:
  3226     17D1  1003               	clrc
  3227     17D2  0DB2               	rlf	??_PWM_duty,f
  3228     17D3  3EFF               	addlw	-1
  3229     17D4  1D03               	skipz
  3230     17D5  2FD1               	goto	u2165
  3231     17D6  1003               	clrc
  3232     17D7  0D32               	rlf	??_PWM_duty,w
  3233     17D8  3930               	andlw	48
  3234     17D9  0417               	iorwf	23,w	;volatile
  3235     17DA  0097               	movwf	23	;volatile
  3236                           
  3237                           ;PWM_Library.c: 55:     }
  3238     17DB  2FFF               	goto	l369
  3239     17DC                     l2150:
  3240     17DC  3002               	movlw	2
  3241     17DD  062E               	xorwf	PWM_duty@canal,w
  3242     17DE  042F               	iorwf	PWM_duty@canal+1,w
  3243     17DF  1D03               	btfss	3,2
  3244     17E0  2FE2               	goto	u2171
  3245     17E1  2FE3               	goto	u2170
  3246     17E2                     u2171:
  3247     17E2  2FFF               	goto	l369
  3248     17E3                     u2170:
  3249     17E3                     l2152:
  3250                           
  3251                           ;PWM_Library.c: 57:     CCPR2L = DutyCycle>>2;
  3252     17E3  0831               	movf	PWM_duty@DutyCycle+1,w
  3253     17E4  00B3               	movwf	??_PWM_duty+1
  3254     17E5  0830               	movf	PWM_duty@DutyCycle,w
  3255     17E6  00B2               	movwf	??_PWM_duty
  3256     17E7  0D33               	rlf	??_PWM_duty+1,w
  3257     17E8  0CB3               	rrf	??_PWM_duty+1,f
  3258     17E9  0CB2               	rrf	??_PWM_duty,f
  3259     17EA  0D33               	rlf	??_PWM_duty+1,w
  3260     17EB  0CB3               	rrf	??_PWM_duty+1,f
  3261     17EC  0CB2               	rrf	??_PWM_duty,f
  3262     17ED  0832               	movf	??_PWM_duty,w
  3263     17EE  009B               	movwf	27	;volatile
  3264     17EF                     l2154:
  3265                           
  3266                           ;PWM_Library.c: 58:     CCP2CON = CCP2CON&0xCF;
  3267     17EF  081D               	movf	29,w	;volatile
  3268     17F0  39CF               	andlw	207
  3269     17F1  009D               	movwf	29	;volatile
  3270     17F2                     l2156:
  3271                           
  3272                           ;PWM_Library.c: 59:     CCP2CON = CCP2CON|(0x30&(DutyCycle<<4));
  3273     17F2  0830               	movf	PWM_duty@DutyCycle,w
  3274     17F3  00B2               	movwf	??_PWM_duty
  3275     17F4  3003               	movlw	3
  3276     17F5                     u2185:
  3277     17F5  1003               	clrc
  3278     17F6  0DB2               	rlf	??_PWM_duty,f
  3279     17F7  3EFF               	addlw	-1
  3280     17F8  1D03               	skipz
  3281     17F9  2FF5               	goto	u2185
  3282     17FA  1003               	clrc
  3283     17FB  0D32               	rlf	??_PWM_duty,w
  3284     17FC  3930               	andlw	48
  3285     17FD  041D               	iorwf	29,w	;volatile
  3286     17FE  009D               	movwf	29	;volatile
  3287     17FF                     l369:
  3288     17FF  0008               	return
  3289     1800                     __end_of_PWM_duty:
  3290                           
  3291                           	psect	text11
  3292     1626                     __ptext11:	
  3293 ;; *************** function _initUART *****************
  3294 ;; Defined at:
  3295 ;;		line 479 in file "Proyecto_Micros.c"
  3296 ;; Parameters:    Size  Location     Type
  3297 ;;		None
  3298 ;; Auto vars:     Size  Location     Type
  3299 ;;		None
  3300 ;; Return value:  Size  Location     Type
  3301 ;;                  1    wreg      void 
  3302 ;; Registers used:
  3303 ;;		wreg, status,2
  3304 ;; Tracked objects:
  3305 ;;		On entry : 0/0
  3306 ;;		On exit  : 0/0
  3307 ;;		Unchanged: 0/0
  3308 ;; Data sizes:     COMMON   BANK0   BANK1   BANK3   BANK2
  3309 ;;      Params:         0       0       0       0       0
  3310 ;;      Locals:         0       0       0       0       0
  3311 ;;      Temps:          0       0       0       0       0
  3312 ;;      Totals:         0       0       0       0       0
  3313 ;;Total ram usage:        0 bytes
  3314 ;; Hardware stack levels used: 1
  3315 ;; Hardware stack levels required when called: 3
  3316 ;; This function calls:
  3317 ;;		Nothing
  3318 ;; This function is called by:
  3319 ;;		_main
  3320 ;; This function uses a non-reentrant model
  3321 ;;
  3322                           
  3323     1626                     _initUART:	
  3324                           ;psect for function _initUART
  3325                           
  3326     1626                     l2706:	
  3327                           ;incstack = 0
  3328                           ; Regs used in _initUART: [wreg+status,2]
  3329                           
  3330                           
  3331                           ;Proyecto_Micros.c: 505:     SPBRG = 12;
  3332     1626  300C               	movlw	12
  3333     1627  1683               	bsf	3,5	;RP0=1, select bank1
  3334     1628  1303               	bcf	3,6	;RP1=0, select bank1
  3335     1629  0099               	movwf	25	;volatile
  3336     162A                     l2708:
  3337                           
  3338                           ;Proyecto_Micros.c: 506:     SPBRGH = 0;
  3339     162A  019A               	clrf	26	;volatile
  3340     162B                     l2710:
  3341                           
  3342                           ;Proyecto_Micros.c: 507:     BRGH = 0;
  3343     162B  1118               	bcf	24,2	;volatile
  3344     162C                     l2712:
  3345                           
  3346                           ;Proyecto_Micros.c: 508:     BRG16 = 0;
  3347     162C  1683               	bsf	3,5	;RP0=1, select bank3
  3348     162D  1703               	bsf	3,6	;RP1=1, select bank3
  3349     162E  1187               	bcf	7,3	;volatile
  3350     162F                     l2714:
  3351                           
  3352                           ;Proyecto_Micros.c: 511:     SYNC = 0;
  3353     162F  1683               	bsf	3,5	;RP0=1, select bank1
  3354     1630  1303               	bcf	3,6	;RP1=0, select bank1
  3355     1631  1218               	bcf	24,4	;volatile
  3356     1632                     l2716:
  3357                           
  3358                           ;Proyecto_Micros.c: 512:     SPEN = 1;
  3359     1632  1283               	bcf	3,5	;RP0=0, select bank0
  3360     1633  1303               	bcf	3,6	;RP1=0, select bank0
  3361     1634  1798               	bsf	24,7	;volatile
  3362     1635                     l2718:
  3363                           
  3364                           ;Proyecto_Micros.c: 517:     TXEN = 1;
  3365     1635  1683               	bsf	3,5	;RP0=1, select bank1
  3366     1636  1303               	bcf	3,6	;RP1=0, select bank1
  3367     1637  1698               	bsf	24,5	;volatile
  3368     1638                     l2720:
  3369                           
  3370                           ;Proyecto_Micros.c: 518:     TXIF = 0;
  3371     1638  1283               	bcf	3,5	;RP0=0, select bank0
  3372     1639  1303               	bcf	3,6	;RP1=0, select bank0
  3373     163A  120C               	bcf	12,4	;volatile
  3374     163B                     l2722:
  3375                           
  3376                           ;Proyecto_Micros.c: 520:     CREN = 1;
  3377     163B  1618               	bsf	24,4	;volatile
  3378     163C                     l2724:
  3379                           
  3380                           ;Proyecto_Micros.c: 521:     RCIF = 0;
  3381     163C  128C               	bcf	12,5	;volatile
  3382     163D                     l306:
  3383     163D  0008               	return
  3384     163E                     __end_of_initUART:
  3385                           
  3386                           	psect	text12
  3387     0B6C                     __ptext12:	
  3388 ;; *************** function _PWM_manual_config *****************
  3389 ;; Defined at:
  3390 ;;		line 64 in file "PWM_Library.c"
  3391 ;; Parameters:    Size  Location     Type
  3392 ;;  periodo_ms      4   34[BANK1 ] float 
  3393 ;; Auto vars:     Size  Location     Type
  3394 ;;  TOSC            4   38[BANK1 ] float 
  3395 ;; Return value:  Size  Location     Type
  3396 ;;                  1    wreg      void 
  3397 ;; Registers used:
  3398 ;;		wreg, status,2, status,0, btemp+1, pclath, cstack
  3399 ;; Tracked objects:
  3400 ;;		On entry : 0/0
  3401 ;;		On exit  : 0/0
  3402 ;;		Unchanged: 0/0
  3403 ;; Data sizes:     COMMON   BANK0   BANK1   BANK3   BANK2
  3404 ;;      Params:         0       0       4       0       0
  3405 ;;      Locals:         0       0      16       0       0
  3406 ;;      Temps:          0       0       0       0       0
  3407 ;;      Totals:         0       0      20       0       0
  3408 ;;Total ram usage:       20 bytes
  3409 ;; Hardware stack levels used: 1
  3410 ;; Hardware stack levels required when called: 5
  3411 ;; This function calls:
  3412 ;;		___fldiv
  3413 ;;		___flmul
  3414 ;;		___fltol
  3415 ;; This function is called by:
  3416 ;;		_main
  3417 ;; This function uses a non-reentrant model
  3418 ;;
  3419                           
  3420     0B6C                     _PWM_manual_config:	
  3421                           ;psect for function _PWM_manual_config
  3422                           
  3423     0B6C                     l3332:	
  3424                           ;incstack = 0
  3425                           ; Regs used in _PWM_manual_config: [wreg+status,2+status,0+btemp+1+pclath+cstack]
  3426                           
  3427                           
  3428                           ;PWM_Library.c: 66:     TRISC = 0b0;
  3429     0B6C  1683               	bsf	3,5	;RP0=1, select bank1
  3430     0B6D  1303               	bcf	3,6	;RP1=0, select bank1
  3431     0B6E  0187               	clrf	7	;volatile
  3432     0B6F                     l3334:
  3433                           
  3434                           ;PWM_Library.c: 67:     float TOSC = 1.0/8000000;
  3435     0B6F  3034               	movlw	52
  3436     0B70  00C9               	movwf	(PWM_manual_config@TOSC+3)^(0+128)
  3437     0B71  3006               	movlw	6
  3438     0B72  00C8               	movwf	(PWM_manual_config@TOSC+2)^(0+128)
  3439     0B73  3037               	movlw	55
  3440     0B74  00C7               	movwf	(PWM_manual_config@TOSC+1)^(0+128)
  3441     0B75  30BD               	movlw	189
  3442     0B76  00C6               	movwf	PWM_manual_config@TOSC^(0+128)
  3443     0B77                     l3336:
  3444                           
  3445                           ;PWM_Library.c: 69:     OPTION_REGbits.T0CS = 0;
  3446     0B77  1281               	bcf	1,5	;volatile
  3447     0B78                     l3338:
  3448                           
  3449                           ;PWM_Library.c: 70:     OPTION_REGbits.PSA = 0;
  3450     0B78  1181               	bcf	1,3	;volatile
  3451     0B79                     l3340:
  3452                           
  3453                           ;PWM_Library.c: 71:     OPTION_REGbits.PS = 0b001;
  3454     0B79  0801               	movf	1,w	;volatile
  3455     0B7A  39F8               	andlw	-8
  3456     0B7B  3801               	iorlw	1
  3457     0B7C  0081               	movwf	1	;volatile
  3458     0B7D                     l3342:
  3459                           
  3460                           ;PWM_Library.c: 73:     preload = (int) (((periodo_ms/1000)/256)/(4*TOSC*4));
  3461     0B7D  0845               	movf	(PWM_manual_config@periodo_ms+3)^(0+128),w
  3462     0B7E  00A7               	movwf	(___fldiv@b+3)^(0+128)
  3463     0B7F  0844               	movf	(PWM_manual_config@periodo_ms+2)^(0+128),w
  3464     0B80  00A6               	movwf	(___fldiv@b+2)^(0+128)
  3465     0B81  0843               	movf	(PWM_manual_config@periodo_ms+1)^(0+128),w
  3466     0B82  00A5               	movwf	(___fldiv@b+1)^(0+128)
  3467     0B83  0842               	movf	PWM_manual_config@periodo_ms^(0+128),w
  3468     0B84  00A4               	movwf	___fldiv@b^(0+128)
  3469     0B85  3044               	movlw	68
  3470     0B86  00A3               	movwf	(___fldiv@a+3)^(0+128)
  3471     0B87  307A               	movlw	122
  3472     0B88  00A2               	movwf	(___fldiv@a+2)^(0+128)
  3473     0B89  3000               	movlw	0
  3474     0B8A  00A1               	movwf	(___fldiv@a+1)^(0+128)
  3475     0B8B  3000               	movlw	0
  3476     0B8C  00A0               	movwf	___fldiv@a^(0+128)
  3477     0B8D  120A  158A  245A  120A  158A  	fcall	___fldiv
  3478     0B92  1683               	bsf	3,5	;RP0=1, select bank1
  3479     0B93  1303               	bcf	3,6	;RP1=0, select bank1
  3480     0B94  0823               	movf	(?___fldiv+3)^(0+128),w
  3481     0B95  00CD               	movwf	(_PWM_manual_config$1145+3)^(0+128)
  3482     0B96  0822               	movf	(?___fldiv+2)^(0+128),w
  3483     0B97  00CC               	movwf	(_PWM_manual_config$1145+2)^(0+128)
  3484     0B98  0821               	movf	(?___fldiv+1)^(0+128),w
  3485     0B99  00CB               	movwf	(_PWM_manual_config$1145+1)^(0+128)
  3486     0B9A  0820               	movf	?___fldiv^(0+128),w
  3487     0B9B  00CA               	movwf	_PWM_manual_config$1145^(0+128)
  3488     0B9C                     l3344:
  3489                           
  3490                           ;PWM_Library.c: 73:     preload = (int) (((periodo_ms/1000)/256)/(4*TOSC*4));
  3491     0B9C  0849               	movf	(PWM_manual_config@TOSC+3)^(0+128),w
  3492     0B9D  1283               	bcf	3,5	;RP0=0, select bank0
  3493     0B9E  1303               	bcf	3,6	;RP1=0, select bank0
  3494     0B9F  00BE               	movwf	___flmul@a+3
  3495     0BA0  1683               	bsf	3,5	;RP0=1, select bank1
  3496     0BA1  1303               	bcf	3,6	;RP1=0, select bank1
  3497     0BA2  0848               	movf	(PWM_manual_config@TOSC+2)^(0+128),w
  3498     0BA3  1283               	bcf	3,5	;RP0=0, select bank0
  3499     0BA4  1303               	bcf	3,6	;RP1=0, select bank0
  3500     0BA5  00BD               	movwf	___flmul@a+2
  3501     0BA6  1683               	bsf	3,5	;RP0=1, select bank1
  3502     0BA7  1303               	bcf	3,6	;RP1=0, select bank1
  3503     0BA8  0847               	movf	(PWM_manual_config@TOSC+1)^(0+128),w
  3504     0BA9  1283               	bcf	3,5	;RP0=0, select bank0
  3505     0BAA  1303               	bcf	3,6	;RP1=0, select bank0
  3506     0BAB  00BC               	movwf	___flmul@a+1
  3507     0BAC  1683               	bsf	3,5	;RP0=1, select bank1
  3508     0BAD  1303               	bcf	3,6	;RP1=0, select bank1
  3509     0BAE  0846               	movf	PWM_manual_config@TOSC^(0+128),w
  3510     0BAF  1283               	bcf	3,5	;RP0=0, select bank0
  3511     0BB0  1303               	bcf	3,6	;RP1=0, select bank0
  3512     0BB1  00BB               	movwf	___flmul@a
  3513     0BB2  3040               	movlw	64
  3514     0BB3  00BA               	movwf	___flmul@b+3
  3515     0BB4  3080               	movlw	128
  3516     0BB5  00B9               	movwf	___flmul@b+2
  3517     0BB6  3000               	movlw	0
  3518     0BB7  00B8               	movwf	___flmul@b+1
  3519     0BB8  3000               	movlw	0
  3520     0BB9  00B7               	movwf	___flmul@b
  3521     0BBA  120A  118A  23C8  120A  158A  	fcall	___flmul
  3522     0BBF  1283               	bcf	3,5	;RP0=0, select bank0
  3523     0BC0  1303               	bcf	3,6	;RP1=0, select bank0
  3524     0BC1  083A               	movf	?___flmul+3,w
  3525     0BC2  1683               	bsf	3,5	;RP0=1, select bank1
  3526     0BC3  1303               	bcf	3,6	;RP1=0, select bank1
  3527     0BC4  00D1               	movwf	(_PWM_manual_config$1146+3)^(0+128)
  3528     0BC5  1283               	bcf	3,5	;RP0=0, select bank0
  3529     0BC6  1303               	bcf	3,6	;RP1=0, select bank0
  3530     0BC7  0839               	movf	?___flmul+2,w
  3531     0BC8  1683               	bsf	3,5	;RP0=1, select bank1
  3532     0BC9  1303               	bcf	3,6	;RP1=0, select bank1
  3533     0BCA  00D0               	movwf	(_PWM_manual_config$1146+2)^(0+128)
  3534     0BCB  1283               	bcf	3,5	;RP0=0, select bank0
  3535     0BCC  1303               	bcf	3,6	;RP1=0, select bank0
  3536     0BCD  0838               	movf	?___flmul+1,w
  3537     0BCE  1683               	bsf	3,5	;RP0=1, select bank1
  3538     0BCF  1303               	bcf	3,6	;RP1=0, select bank1
  3539     0BD0  00CF               	movwf	(_PWM_manual_config$1146+1)^(0+128)
  3540     0BD1  1283               	bcf	3,5	;RP0=0, select bank0
  3541     0BD2  1303               	bcf	3,6	;RP1=0, select bank0
  3542     0BD3  0837               	movf	?___flmul,w
  3543     0BD4  1683               	bsf	3,5	;RP0=1, select bank1
  3544     0BD5  1303               	bcf	3,6	;RP1=0, select bank1
  3545     0BD6  00CE               	movwf	_PWM_manual_config$1146^(0+128)
  3546     0BD7                     l3346:
  3547                           
  3548                           ;PWM_Library.c: 73:     preload = (int) (((periodo_ms/1000)/256)/(4*TOSC*4));
  3549     0BD7  084D               	movf	(_PWM_manual_config$1145+3)^(0+128),w
  3550     0BD8  00A7               	movwf	(___fldiv@b+3)^(0+128)
  3551     0BD9  084C               	movf	(_PWM_manual_config$1145+2)^(0+128),w
  3552     0BDA  00A6               	movwf	(___fldiv@b+2)^(0+128)
  3553     0BDB  084B               	movf	(_PWM_manual_config$1145+1)^(0+128),w
  3554     0BDC  00A5               	movwf	(___fldiv@b+1)^(0+128)
  3555     0BDD  084A               	movf	_PWM_manual_config$1145^(0+128),w
  3556     0BDE  00A4               	movwf	___fldiv@b^(0+128)
  3557     0BDF  3043               	movlw	67
  3558     0BE0  00A3               	movwf	(___fldiv@a+3)^(0+128)
  3559     0BE1  3080               	movlw	128
  3560     0BE2  00A2               	movwf	(___fldiv@a+2)^(0+128)
  3561     0BE3  3000               	movlw	0
  3562     0BE4  00A1               	movwf	(___fldiv@a+1)^(0+128)
  3563     0BE5  3000               	movlw	0
  3564     0BE6  00A0               	movwf	___fldiv@a^(0+128)
  3565     0BE7  120A  158A  245A  120A  158A  	fcall	___fldiv
  3566     0BEC  1683               	bsf	3,5	;RP0=1, select bank1
  3567     0BED  1303               	bcf	3,6	;RP1=0, select bank1
  3568     0BEE  0823               	movf	(?___fldiv+3)^(0+128),w
  3569     0BEF  00D5               	movwf	(_PWM_manual_config$1147+3)^(0+128)
  3570     0BF0  0822               	movf	(?___fldiv+2)^(0+128),w
  3571     0BF1  00D4               	movwf	(_PWM_manual_config$1147+2)^(0+128)
  3572     0BF2  0821               	movf	(?___fldiv+1)^(0+128),w
  3573     0BF3  00D3               	movwf	(_PWM_manual_config$1147+1)^(0+128)
  3574     0BF4  0820               	movf	?___fldiv^(0+128),w
  3575     0BF5  00D2               	movwf	_PWM_manual_config$1147^(0+128)
  3576     0BF6                     l3348:
  3577                           
  3578                           ;PWM_Library.c: 73:     preload = (int) (((periodo_ms/1000)/256)/(4*TOSC*4));
  3579     0BF6  0855               	movf	(_PWM_manual_config$1147+3)^(0+128),w
  3580     0BF7  00A7               	movwf	(___fldiv@b+3)^(0+128)
  3581     0BF8  0854               	movf	(_PWM_manual_config$1147+2)^(0+128),w
  3582     0BF9  00A6               	movwf	(___fldiv@b+2)^(0+128)
  3583     0BFA  0853               	movf	(_PWM_manual_config$1147+1)^(0+128),w
  3584     0BFB  00A5               	movwf	(___fldiv@b+1)^(0+128)
  3585     0BFC  0852               	movf	_PWM_manual_config$1147^(0+128),w
  3586     0BFD  00A4               	movwf	___fldiv@b^(0+128)
  3587     0BFE  0851               	movf	(_PWM_manual_config$1146+3)^(0+128),w
  3588     0BFF  1283               	bcf	3,5	;RP0=0, select bank0
  3589     0C00  1303               	bcf	3,6	;RP1=0, select bank0
  3590     0C01  00BE               	movwf	___flmul@a+3
  3591     0C02  1683               	bsf	3,5	;RP0=1, select bank1
  3592     0C03  1303               	bcf	3,6	;RP1=0, select bank1
  3593     0C04  0850               	movf	(_PWM_manual_config$1146+2)^(0+128),w
  3594     0C05  1283               	bcf	3,5	;RP0=0, select bank0
  3595     0C06  1303               	bcf	3,6	;RP1=0, select bank0
  3596     0C07  00BD               	movwf	___flmul@a+2
  3597     0C08  1683               	bsf	3,5	;RP0=1, select bank1
  3598     0C09  1303               	bcf	3,6	;RP1=0, select bank1
  3599     0C0A  084F               	movf	(_PWM_manual_config$1146+1)^(0+128),w
  3600     0C0B  1283               	bcf	3,5	;RP0=0, select bank0
  3601     0C0C  1303               	bcf	3,6	;RP1=0, select bank0
  3602     0C0D  00BC               	movwf	___flmul@a+1
  3603     0C0E  1683               	bsf	3,5	;RP0=1, select bank1
  3604     0C0F  1303               	bcf	3,6	;RP1=0, select bank1
  3605     0C10  084E               	movf	_PWM_manual_config$1146^(0+128),w
  3606     0C11  1283               	bcf	3,5	;RP0=0, select bank0
  3607     0C12  1303               	bcf	3,6	;RP1=0, select bank0
  3608     0C13  00BB               	movwf	___flmul@a
  3609     0C14  3040               	movlw	64
  3610     0C15  00BA               	movwf	___flmul@b+3
  3611     0C16  3080               	movlw	128
  3612     0C17  00B9               	movwf	___flmul@b+2
  3613     0C18  3000               	movlw	0
  3614     0C19  00B8               	movwf	___flmul@b+1
  3615     0C1A  3000               	movlw	0
  3616     0C1B  00B7               	movwf	___flmul@b
  3617     0C1C  120A  118A  23C8  120A  158A  	fcall	___flmul
  3618     0C21  1283               	bcf	3,5	;RP0=0, select bank0
  3619     0C22  1303               	bcf	3,6	;RP1=0, select bank0
  3620     0C23  083A               	movf	?___flmul+3,w
  3621     0C24  1683               	bsf	3,5	;RP0=1, select bank1
  3622     0C25  1303               	bcf	3,6	;RP1=0, select bank1
  3623     0C26  00A3               	movwf	(___fldiv@a+3)^(0+128)
  3624     0C27  1283               	bcf	3,5	;RP0=0, select bank0
  3625     0C28  1303               	bcf	3,6	;RP1=0, select bank0
  3626     0C29  0839               	movf	?___flmul+2,w
  3627     0C2A  1683               	bsf	3,5	;RP0=1, select bank1
  3628     0C2B  1303               	bcf	3,6	;RP1=0, select bank1
  3629     0C2C  00A2               	movwf	(___fldiv@a+2)^(0+128)
  3630     0C2D  1283               	bcf	3,5	;RP0=0, select bank0
  3631     0C2E  1303               	bcf	3,6	;RP1=0, select bank0
  3632     0C2F  0838               	movf	?___flmul+1,w
  3633     0C30  1683               	bsf	3,5	;RP0=1, select bank1
  3634     0C31  1303               	bcf	3,6	;RP1=0, select bank1
  3635     0C32  00A1               	movwf	(___fldiv@a+1)^(0+128)
  3636     0C33  1283               	bcf	3,5	;RP0=0, select bank0
  3637     0C34  1303               	bcf	3,6	;RP1=0, select bank0
  3638     0C35  0837               	movf	?___flmul,w
  3639     0C36  1683               	bsf	3,5	;RP0=1, select bank1
  3640     0C37  1303               	bcf	3,6	;RP1=0, select bank1
  3641     0C38  00A0               	movwf	___fldiv@a^(0+128)
  3642     0C39  120A  158A  245A  120A  158A  	fcall	___fldiv
  3643     0C3E  1683               	bsf	3,5	;RP0=1, select bank1
  3644     0C3F  1303               	bcf	3,6	;RP1=0, select bank1
  3645     0C40  0823               	movf	(?___fldiv+3)^(0+128),w
  3646     0C41  00BD               	movwf	(___fltol@f1+3)^(0+128)
  3647     0C42  0822               	movf	(?___fldiv+2)^(0+128),w
  3648     0C43  00BC               	movwf	(___fltol@f1+2)^(0+128)
  3649     0C44  0821               	movf	(?___fldiv+1)^(0+128),w
  3650     0C45  00BB               	movwf	(___fltol@f1+1)^(0+128)
  3651     0C46  0820               	movf	?___fldiv^(0+128),w
  3652     0C47  00BA               	movwf	___fltol@f1^(0+128)
  3653     0C48  120A  158A  2150  120A  158A  	fcall	___fltol
  3654     0C4D  1683               	bsf	3,5	;RP0=1, select bank1
  3655     0C4E  1303               	bcf	3,6	;RP1=0, select bank1
  3656     0C4F  083B               	movf	(?___fltol+1)^(0+128),w
  3657     0C50  00D9               	movwf	(_preload+1)^(0+128)
  3658     0C51  083A               	movf	?___fltol^(0+128),w
  3659     0C52  00D8               	movwf	_preload^(0+128)
  3660     0C53                     l3350:
  3661                           
  3662                           ;PWM_Library.c: 74:     INTCONbits.T0IF = 0;
  3663     0C53  110B               	bcf	11,2	;volatile
  3664     0C54                     l3352:
  3665                           
  3666                           ;PWM_Library.c: 75:     TMR0 = 256-preload;
  3667     0C54  0858               	movf	_preload^(0+128),w
  3668     0C55  3C00               	sublw	0
  3669     0C56  1283               	bcf	3,5	;RP0=0, select bank0
  3670     0C57  1303               	bcf	3,6	;RP1=0, select bank0
  3671     0C58  0081               	movwf	1	;volatile
  3672     0C59                     l372:
  3673     0C59  0008               	return
  3674     0C5A                     __end_of_PWM_manual_config:
  3675                           
  3676                           	psect	text13
  3677     09DE                     __ptext13:	
  3678 ;; *************** function _PWM_config *****************
  3679 ;; Defined at:
  3680 ;;		line 27 in file "PWM_Library.c"
  3681 ;; Parameters:    Size  Location     Type
  3682 ;;  canal           2   34[BANK1 ] int 
  3683 ;;  periodo_ms      4   36[BANK1 ] float 
  3684 ;; Auto vars:     Size  Location     Type
  3685 ;;  valPR2          2   44[BANK1 ] int 
  3686 ;; Return value:  Size  Location     Type
  3687 ;;                  1    wreg      void 
  3688 ;; Registers used:
  3689 ;;		wreg, status,2, status,0, btemp+1, pclath, cstack
  3690 ;; Tracked objects:
  3691 ;;		On entry : 0/0
  3692 ;;		On exit  : 0/0
  3693 ;;		Unchanged: 0/0
  3694 ;; Data sizes:     COMMON   BANK0   BANK1   BANK3   BANK2
  3695 ;;      Params:         0       0       6       0       0
  3696 ;;      Locals:         0       0       6       0       0
  3697 ;;      Temps:          0       0       0       0       0
  3698 ;;      Totals:         0       0      12       0       0
  3699 ;;Total ram usage:       12 bytes
  3700 ;; Hardware stack levels used: 1
  3701 ;; Hardware stack levels required when called: 5
  3702 ;; This function calls:
  3703 ;;		___fldiv
  3704 ;;		___flmul
  3705 ;;		___fltol
  3706 ;; This function is called by:
  3707 ;;		_main
  3708 ;; This function uses a non-reentrant model
  3709 ;;
  3710                           
  3711     09DE                     _PWM_config:	
  3712                           ;psect for function _PWM_config
  3713                           
  3714     09DE                     l3310:	
  3715                           ;incstack = 0
  3716                           ; Regs used in _PWM_config: [wreg+status,2+status,0+btemp+1+pclath+cstack]
  3717                           
  3718                           
  3719                           ;PWM_Library.c: 29:     int valPR2 = (int)((periodo_ms/1000)*(500000)/(16*4));
  3720     09DE  1683               	bsf	3,5	;RP0=1, select bank1
  3721     09DF  1303               	bcf	3,6	;RP1=0, select bank1
  3722     09E0  0847               	movf	(PWM_config@periodo_ms+3)^(0+128),w
  3723     09E1  00A7               	movwf	(___fldiv@b+3)^(0+128)
  3724     09E2  0846               	movf	(PWM_config@periodo_ms+2)^(0+128),w
  3725     09E3  00A6               	movwf	(___fldiv@b+2)^(0+128)
  3726     09E4  0845               	movf	(PWM_config@periodo_ms+1)^(0+128),w
  3727     09E5  00A5               	movwf	(___fldiv@b+1)^(0+128)
  3728     09E6  0844               	movf	PWM_config@periodo_ms^(0+128),w
  3729     09E7  00A4               	movwf	___fldiv@b^(0+128)
  3730     09E8  3044               	movlw	68
  3731     09E9  00A3               	movwf	(___fldiv@a+3)^(0+128)
  3732     09EA  307A               	movlw	122
  3733     09EB  00A2               	movwf	(___fldiv@a+2)^(0+128)
  3734     09EC  3000               	movlw	0
  3735     09ED  00A1               	movwf	(___fldiv@a+1)^(0+128)
  3736     09EE  3000               	movlw	0
  3737     09EF  00A0               	movwf	___fldiv@a^(0+128)
  3738     09F0  120A  158A  245A  120A  158A  	fcall	___fldiv
  3739     09F5  1683               	bsf	3,5	;RP0=1, select bank1
  3740     09F6  1303               	bcf	3,6	;RP1=0, select bank1
  3741     09F7  0823               	movf	(?___fldiv+3)^(0+128),w
  3742     09F8  1283               	bcf	3,5	;RP0=0, select bank0
  3743     09F9  1303               	bcf	3,6	;RP1=0, select bank0
  3744     09FA  00BE               	movwf	___flmul@a+3
  3745     09FB  1683               	bsf	3,5	;RP0=1, select bank1
  3746     09FC  1303               	bcf	3,6	;RP1=0, select bank1
  3747     09FD  0822               	movf	(?___fldiv+2)^(0+128),w
  3748     09FE  1283               	bcf	3,5	;RP0=0, select bank0
  3749     09FF  1303               	bcf	3,6	;RP1=0, select bank0
  3750     0A00  00BD               	movwf	___flmul@a+2
  3751     0A01  1683               	bsf	3,5	;RP0=1, select bank1
  3752     0A02  1303               	bcf	3,6	;RP1=0, select bank1
  3753     0A03  0821               	movf	(?___fldiv+1)^(0+128),w
  3754     0A04  1283               	bcf	3,5	;RP0=0, select bank0
  3755     0A05  1303               	bcf	3,6	;RP1=0, select bank0
  3756     0A06  00BC               	movwf	___flmul@a+1
  3757     0A07  1683               	bsf	3,5	;RP0=1, select bank1
  3758     0A08  1303               	bcf	3,6	;RP1=0, select bank1
  3759     0A09  0820               	movf	?___fldiv^(0+128),w
  3760     0A0A  1283               	bcf	3,5	;RP0=0, select bank0
  3761     0A0B  1303               	bcf	3,6	;RP1=0, select bank0
  3762     0A0C  00BB               	movwf	___flmul@a
  3763     0A0D  3048               	movlw	72
  3764     0A0E  00BA               	movwf	___flmul@b+3
  3765     0A0F  30F4               	movlw	244
  3766     0A10  00B9               	movwf	___flmul@b+2
  3767     0A11  3024               	movlw	36
  3768     0A12  00B8               	movwf	___flmul@b+1
  3769     0A13  3000               	movlw	0
  3770     0A14  00B7               	movwf	___flmul@b
  3771     0A15  120A  118A  23C8  120A  158A  	fcall	___flmul
  3772     0A1A  1283               	bcf	3,5	;RP0=0, select bank0
  3773     0A1B  1303               	bcf	3,6	;RP1=0, select bank0
  3774     0A1C  083A               	movf	?___flmul+3,w
  3775     0A1D  1683               	bsf	3,5	;RP0=1, select bank1
  3776     0A1E  1303               	bcf	3,6	;RP1=0, select bank1
  3777     0A1F  00CB               	movwf	(_PWM_config$1144+3)^(0+128)
  3778     0A20  1283               	bcf	3,5	;RP0=0, select bank0
  3779     0A21  1303               	bcf	3,6	;RP1=0, select bank0
  3780     0A22  0839               	movf	?___flmul+2,w
  3781     0A23  1683               	bsf	3,5	;RP0=1, select bank1
  3782     0A24  1303               	bcf	3,6	;RP1=0, select bank1
  3783     0A25  00CA               	movwf	(_PWM_config$1144+2)^(0+128)
  3784     0A26  1283               	bcf	3,5	;RP0=0, select bank0
  3785     0A27  1303               	bcf	3,6	;RP1=0, select bank0
  3786     0A28  0838               	movf	?___flmul+1,w
  3787     0A29  1683               	bsf	3,5	;RP0=1, select bank1
  3788     0A2A  1303               	bcf	3,6	;RP1=0, select bank1
  3789     0A2B  00C9               	movwf	(_PWM_config$1144+1)^(0+128)
  3790     0A2C  1283               	bcf	3,5	;RP0=0, select bank0
  3791     0A2D  1303               	bcf	3,6	;RP1=0, select bank0
  3792     0A2E  0837               	movf	?___flmul,w
  3793     0A2F  1683               	bsf	3,5	;RP0=1, select bank1
  3794     0A30  1303               	bcf	3,6	;RP1=0, select bank1
  3795     0A31  00C8               	movwf	_PWM_config$1144^(0+128)
  3796                           
  3797                           ;PWM_Library.c: 29:     int valPR2 = (int)((periodo_ms/1000)*(500000)/(16*4));
  3798     0A32  084B               	movf	(_PWM_config$1144+3)^(0+128),w
  3799     0A33  00A7               	movwf	(___fldiv@b+3)^(0+128)
  3800     0A34  084A               	movf	(_PWM_config$1144+2)^(0+128),w
  3801     0A35  00A6               	movwf	(___fldiv@b+2)^(0+128)
  3802     0A36  0849               	movf	(_PWM_config$1144+1)^(0+128),w
  3803     0A37  00A5               	movwf	(___fldiv@b+1)^(0+128)
  3804     0A38  0848               	movf	_PWM_config$1144^(0+128),w
  3805     0A39  00A4               	movwf	___fldiv@b^(0+128)
  3806     0A3A  3042               	movlw	66
  3807     0A3B  00A3               	movwf	(___fldiv@a+3)^(0+128)
  3808     0A3C  3080               	movlw	128
  3809     0A3D  00A2               	movwf	(___fldiv@a+2)^(0+128)
  3810     0A3E  3000               	movlw	0
  3811     0A3F  00A1               	movwf	(___fldiv@a+1)^(0+128)
  3812     0A40  3000               	movlw	0
  3813     0A41  00A0               	movwf	___fldiv@a^(0+128)
  3814     0A42  120A  158A  245A  120A  158A  	fcall	___fldiv
  3815     0A47  1683               	bsf	3,5	;RP0=1, select bank1
  3816     0A48  1303               	bcf	3,6	;RP1=0, select bank1
  3817     0A49  0823               	movf	(?___fldiv+3)^(0+128),w
  3818     0A4A  00BD               	movwf	(___fltol@f1+3)^(0+128)
  3819     0A4B  0822               	movf	(?___fldiv+2)^(0+128),w
  3820     0A4C  00BC               	movwf	(___fltol@f1+2)^(0+128)
  3821     0A4D  0821               	movf	(?___fldiv+1)^(0+128),w
  3822     0A4E  00BB               	movwf	(___fltol@f1+1)^(0+128)
  3823     0A4F  0820               	movf	?___fldiv^(0+128),w
  3824     0A50  00BA               	movwf	___fltol@f1^(0+128)
  3825     0A51  120A  158A  2150  120A  158A  	fcall	___fltol
  3826     0A56  1683               	bsf	3,5	;RP0=1, select bank1
  3827     0A57  1303               	bcf	3,6	;RP1=0, select bank1
  3828     0A58  083B               	movf	(?___fltol+1)^(0+128),w
  3829     0A59  00CD               	movwf	(PWM_config@valPR2+1)^(0+128)
  3830     0A5A  083A               	movf	?___fltol^(0+128),w
  3831     0A5B  00CC               	movwf	PWM_config@valPR2^(0+128)
  3832     0A5C                     l3312:
  3833                           
  3834                           ;PWM_Library.c: 30:     if (canal == 1){
  3835     0A5C  0342               	decf	PWM_config@canal^(0+128),w
  3836     0A5D  0443               	iorwf	(PWM_config@canal+1)^(0+128),w
  3837     0A5E  1D03               	btfss	3,2
  3838     0A5F  2A61               	goto	u4311
  3839     0A60  2A62               	goto	u4310
  3840     0A61                     u4311:
  3841     0A61  2A6C               	goto	l3318
  3842     0A62                     u4310:
  3843     0A62                     l3314:
  3844                           
  3845                           ;PWM_Library.c: 31:         TRISC = 0b100;
  3846     0A62  3004               	movlw	4
  3847     0A63  0087               	movwf	7	;volatile
  3848                           
  3849                           ;PWM_Library.c: 32:         PR2 = (char)valPR2;
  3850     0A64  084C               	movf	PWM_config@valPR2^(0+128),w
  3851     0A65  0092               	movwf	18	;volatile
  3852                           
  3853                           ;PWM_Library.c: 33:         CCP1CON = 0x0C;
  3854     0A66  300C               	movlw	12
  3855     0A67  1283               	bcf	3,5	;RP0=0, select bank0
  3856     0A68  1303               	bcf	3,6	;RP1=0, select bank0
  3857     0A69  0097               	movwf	23	;volatile
  3858     0A6A                     l3316:
  3859                           
  3860                           ;PWM_Library.c: 34:         CCPR1L = 0x00;
  3861     0A6A  0195               	clrf	21	;volatile
  3862                           
  3863                           ;PWM_Library.c: 35:     }
  3864     0A6B  2A7C               	goto	l3324
  3865     0A6C                     l3318:
  3866     0A6C  3002               	movlw	2
  3867     0A6D  0642               	xorwf	PWM_config@canal^(0+128),w
  3868     0A6E  0443               	iorwf	(PWM_config@canal+1)^(0+128),w
  3869     0A6F  1D03               	btfss	3,2
  3870     0A70  2A72               	goto	u4321
  3871     0A71  2A73               	goto	u4320
  3872     0A72                     u4321:
  3873     0A72  2A7C               	goto	l3324
  3874     0A73                     u4320:
  3875     0A73                     l3320:
  3876                           
  3877                           ;PWM_Library.c: 37:         TRISC = 0b010;
  3878     0A73  3002               	movlw	2
  3879     0A74  0087               	movwf	7	;volatile
  3880                           
  3881                           ;PWM_Library.c: 38:         PR2 = (char)valPR2;
  3882     0A75  084C               	movf	PWM_config@valPR2^(0+128),w
  3883     0A76  0092               	movwf	18	;volatile
  3884                           
  3885                           ;PWM_Library.c: 39:         CCP2CON = 0x0C;
  3886     0A77  300C               	movlw	12
  3887     0A78  1283               	bcf	3,5	;RP0=0, select bank0
  3888     0A79  1303               	bcf	3,6	;RP1=0, select bank0
  3889     0A7A  009D               	movwf	29	;volatile
  3890     0A7B                     l3322:
  3891                           
  3892                           ;PWM_Library.c: 40:         CCPR2L = 0x00;
  3893     0A7B  019B               	clrf	27	;volatile
  3894     0A7C                     l3324:
  3895                           
  3896                           ;PWM_Library.c: 42:     TMR2IF = 0;
  3897     0A7C  1283               	bcf	3,5	;RP0=0, select bank0
  3898     0A7D  108C               	bcf	12,1	;volatile
  3899     0A7E                     l3326:
  3900                           
  3901                           ;PWM_Library.c: 43:     T2CON = 0x07;
  3902     0A7E  3007               	movlw	7
  3903     0A7F  0092               	movwf	18	;volatile
  3904     0A80                     l360:	
  3905                           ;PWM_Library.c: 44:     while (!TMR2IF){;}
  3906                           
  3907     0A80  1C8C               	btfss	12,1	;volatile
  3908     0A81  2A83               	goto	u4331
  3909     0A82  2A84               	goto	u4330
  3910     0A83                     u4331:
  3911     0A83  2A80               	goto	l360
  3912     0A84                     u4330:
  3913     0A84                     l362:
  3914                           
  3915                           ;PWM_Library.c: 45:     TMR2IF = 0;
  3916     0A84  108C               	bcf	12,1	;volatile
  3917     0A85                     l3328:
  3918                           
  3919                           ;PWM_Library.c: 46:     TRISC = 0b000;
  3920     0A85  1683               	bsf	3,5	;RP0=1, select bank1
  3921     0A86  1303               	bcf	3,6	;RP1=0, select bank1
  3922     0A87  0187               	clrf	7	;volatile
  3923     0A88                     l363:
  3924     0A88  0008               	return
  3925     0A89                     __end_of_PWM_config:
  3926                           
  3927                           	psect	text14
  3928     0950                     __ptext14:	
  3929 ;; *************** function ___fltol *****************
  3930 ;; Defined at:
  3931 ;;		line 43 in file "C:\Program Files\Microchip\xc8\v2.40\pic\sources\c90\common\fltol.c"
  3932 ;; Parameters:    Size  Location     Type
  3933 ;;  f1              4   26[BANK1 ] void 
  3934 ;; Auto vars:     Size  Location     Type
  3935 ;;  exp1            1   50[BANK0 ] unsigned char 
  3936 ;;  sign1           1   49[BANK0 ] unsigned char 
  3937 ;; Return value:  Size  Location     Type
  3938 ;;                  4   26[BANK1 ] long 
  3939 ;; Registers used:
  3940 ;;		wreg, status,2, status,0
  3941 ;; Tracked objects:
  3942 ;;		On entry : 0/0
  3943 ;;		On exit  : 0/0
  3944 ;;		Unchanged: 0/0
  3945 ;; Data sizes:     COMMON   BANK0   BANK1   BANK3   BANK2
  3946 ;;      Params:         0       0       4       0       0
  3947 ;;      Locals:         0       2       0       0       0
  3948 ;;      Temps:          0       0       4       0       0
  3949 ;;      Totals:         0       2       8       0       0
  3950 ;;Total ram usage:       10 bytes
  3951 ;; Hardware stack levels used: 1
  3952 ;; Hardware stack levels required when called: 3
  3953 ;; This function calls:
  3954 ;;		Nothing
  3955 ;; This function is called by:
  3956 ;;		_PWM_config
  3957 ;;		_PWM_manual_config
  3958 ;; This function uses a non-reentrant model
  3959 ;;
  3960                           
  3961     0950                     ___fltol:	
  3962                           ;psect for function ___fltol
  3963                           
  3964     0950                     l3132:	
  3965                           ;incstack = 0
  3966                           ; Regs used in ___fltol: [wreg+status,2+status,0]
  3967                           
  3968     0950  1003               	clrc
  3969     0951  1683               	bsf	3,5	;RP0=1, select bank1
  3970     0952  1303               	bcf	3,6	;RP1=0, select bank1
  3971     0953  0D3C               	rlf	(___fltol@f1+2)^(0+128),w
  3972     0954  0D3D               	rlf	(___fltol@f1+3)^(0+128),w
  3973     0955  1283               	bcf	3,5	;RP0=0, select bank0
  3974     0956  1303               	bcf	3,6	;RP1=0, select bank0
  3975     0957  00D2               	movwf	___fltol@exp1
  3976     0958  0852               	movf	___fltol@exp1,w
  3977     0959  1D03               	btfss	3,2
  3978     095A  295C               	goto	u3921
  3979     095B  295D               	goto	u3920
  3980     095C                     u3921:
  3981     095C  2968               	goto	l3138
  3982     095D                     u3920:
  3983     095D                     l3134:
  3984     095D  3000               	movlw	0
  3985     095E  1683               	bsf	3,5	;RP0=1, select bank1
  3986     095F  1303               	bcf	3,6	;RP1=0, select bank1
  3987     0960  00BD               	movwf	(?___fltol+3)^(0+128)
  3988     0961  3000               	movlw	0
  3989     0962  00BC               	movwf	(?___fltol+2)^(0+128)
  3990     0963  3000               	movlw	0
  3991     0964  00BB               	movwf	(?___fltol+1)^(0+128)
  3992     0965  3000               	movlw	0
  3993     0966  00BA               	movwf	?___fltol^(0+128)
  3994     0967  29DD               	goto	l652
  3995     0968                     l3138:
  3996     0968  1683               	bsf	3,5	;RP0=1, select bank1
  3997     0969  1303               	bcf	3,6	;RP1=0, select bank1
  3998     096A  083A               	movf	___fltol@f1^(0+128),w
  3999     096B  00BE               	movwf	??___fltol^(0+128)
  4000     096C  083B               	movf	(___fltol@f1+1)^(0+128),w
  4001     096D  00BF               	movwf	(??___fltol^(0+128)+1)
  4002     096E  083C               	movf	(___fltol@f1+2)^(0+128),w
  4003     096F  00C0               	movwf	(??___fltol^(0+128)+2)
  4004     0970  083D               	movf	(___fltol@f1+3)^(0+128),w
  4005     0971  00C1               	movwf	(??___fltol^(0+128)+3)
  4006     0972  301F               	movlw	31
  4007     0973                     u3935:
  4008     0973  1003               	clrc
  4009     0974  0CC1               	rrf	(??___fltol^(0+128)+3),f
  4010     0975  0CC0               	rrf	(??___fltol^(0+128)+2),f
  4011     0976  0CBF               	rrf	(??___fltol^(0+128)+1),f
  4012     0977  0CBE               	rrf	??___fltol^(0+128),f
  4013     0978                     u3930:
  4014     0978  3EFF               	addlw	-1
  4015     0979  1D03               	skipz
  4016     097A  2973               	goto	u3935
  4017     097B  083E               	movf	??___fltol^(0+128),w
  4018     097C  1283               	bcf	3,5	;RP0=0, select bank0
  4019     097D  1303               	bcf	3,6	;RP1=0, select bank0
  4020     097E  00D1               	movwf	___fltol@sign1
  4021     097F                     l3140:
  4022     097F  1683               	bsf	3,5	;RP0=1, select bank1
  4023     0980  1303               	bcf	3,6	;RP1=0, select bank1
  4024     0981  17BC               	bsf	(___fltol@f1^(0+128)+2),7
  4025     0982                     l3142:
  4026     0982  30FF               	movlw	255
  4027     0983  05BA               	andwf	___fltol@f1^(0+128),f
  4028     0984  30FF               	movlw	255
  4029     0985  05BB               	andwf	(___fltol@f1+1)^(0+128),f
  4030     0986  30FF               	movlw	255
  4031     0987  05BC               	andwf	(___fltol@f1+2)^(0+128),f
  4032     0988  3000               	movlw	0
  4033     0989  05BD               	andwf	(___fltol@f1+3)^(0+128),f
  4034     098A                     l3144:
  4035     098A  3096               	movlw	150
  4036     098B  1283               	bcf	3,5	;RP0=0, select bank0
  4037     098C  1303               	bcf	3,6	;RP1=0, select bank0
  4038     098D  02D2               	subwf	___fltol@exp1,f
  4039     098E                     l3146:
  4040     098E  1FD2               	btfss	___fltol@exp1,7
  4041     098F  2991               	goto	u3941
  4042     0990  2992               	goto	u3940
  4043     0991                     u3941:
  4044     0991  29B0               	goto	l3156
  4045     0992                     u3940:
  4046     0992                     l3148:
  4047     0992  0852               	movf	___fltol@exp1,w
  4048     0993  3A80               	xorlw	128
  4049     0994  3E97               	addlw	151
  4050     0995  1803               	skipnc
  4051     0996  2998               	goto	u3951
  4052     0997  2999               	goto	u3950
  4053     0998                     u3951:
  4054     0998  299A               	goto	l3154
  4055     0999                     u3950:
  4056     0999  295D               	goto	l3134
  4057     099A                     l3154:
  4058     099A  3001               	movlw	1
  4059     099B                     u3965:
  4060     099B  1003               	clrc
  4061     099C  1683               	bsf	3,5	;RP0=1, select bank1
  4062     099D  1303               	bcf	3,6	;RP1=0, select bank1
  4063     099E  0CBD               	rrf	(___fltol@f1+3)^(0+128),f
  4064     099F  0CBC               	rrf	(___fltol@f1+2)^(0+128),f
  4065     09A0  0CBB               	rrf	(___fltol@f1+1)^(0+128),f
  4066     09A1  0CBA               	rrf	___fltol@f1^(0+128),f
  4067     09A2  3EFF               	addlw	-1
  4068     09A3  1D03               	skipz
  4069     09A4  299B               	goto	u3965
  4070     09A5  3001               	movlw	1
  4071     09A6  00BE               	movwf	??___fltol^(0+128)
  4072     09A7  083E               	movf	??___fltol^(0+128),w
  4073     09A8  1283               	bcf	3,5	;RP0=0, select bank0
  4074     09A9  1303               	bcf	3,6	;RP1=0, select bank0
  4075     09AA  07D2               	addwf	___fltol@exp1,f
  4076     09AB  1D03               	btfss	3,2
  4077     09AC  29AE               	goto	u3971
  4078     09AD  29AF               	goto	u3970
  4079     09AE                     u3971:
  4080     09AE  299A               	goto	l3154
  4081     09AF                     u3970:
  4082     09AF  29CB               	goto	l3164
  4083     09B0                     l3156:
  4084     09B0  3020               	movlw	32
  4085     09B1  0252               	subwf	___fltol@exp1,w
  4086     09B2  1C03               	skipc
  4087     09B3  29B5               	goto	u3981
  4088     09B4  29B6               	goto	u3980
  4089     09B5                     u3981:
  4090     09B5  29C6               	goto	l659
  4091     09B6                     u3980:
  4092     09B6  295D               	goto	l3134
  4093     09B7                     l3162:
  4094     09B7  3001               	movlw	1
  4095     09B8  1683               	bsf	3,5	;RP0=1, select bank1
  4096     09B9  1303               	bcf	3,6	;RP1=0, select bank1
  4097     09BA  00BE               	movwf	??___fltol^(0+128)
  4098     09BB                     u3995:
  4099     09BB  1003               	clrc
  4100     09BC  0DBA               	rlf	___fltol@f1^(0+128),f
  4101     09BD  0DBB               	rlf	(___fltol@f1+1)^(0+128),f
  4102     09BE  0DBC               	rlf	(___fltol@f1+2)^(0+128),f
  4103     09BF  0DBD               	rlf	(___fltol@f1+3)^(0+128),f
  4104     09C0  0BBE               	decfsz	??___fltol^(0+128),f
  4105     09C1  29BB               	goto	u3995
  4106     09C2  3001               	movlw	1
  4107     09C3  1283               	bcf	3,5	;RP0=0, select bank0
  4108     09C4  1303               	bcf	3,6	;RP1=0, select bank0
  4109     09C5  02D2               	subwf	___fltol@exp1,f
  4110     09C6                     l659:
  4111     09C6  0852               	movf	___fltol@exp1,w
  4112     09C7  1D03               	btfss	3,2
  4113     09C8  29CA               	goto	u4001
  4114     09C9  29CB               	goto	u4000
  4115     09CA                     u4001:
  4116     09CA  29B7               	goto	l3162
  4117     09CB                     u4000:
  4118     09CB                     l3164:
  4119     09CB  0851               	movf	___fltol@sign1,w
  4120     09CC  1903               	btfsc	3,2
  4121     09CD  29CF               	goto	u4011
  4122     09CE  29D0               	goto	u4010
  4123     09CF                     u4011:
  4124     09CF  29DD               	goto	l662
  4125     09D0                     u4010:
  4126     09D0                     l3166:
  4127     09D0  1683               	bsf	3,5	;RP0=1, select bank1
  4128     09D1  1303               	bcf	3,6	;RP1=0, select bank1
  4129     09D2  09BA               	comf	___fltol@f1^(0+128),f
  4130     09D3  09BB               	comf	(___fltol@f1+1)^(0+128),f
  4131     09D4  09BC               	comf	(___fltol@f1+2)^(0+128),f
  4132     09D5  09BD               	comf	(___fltol@f1+3)^(0+128),f
  4133     09D6  0ABA               	incf	___fltol@f1^(0+128),f
  4134     09D7  1903               	skipnz
  4135     09D8  0ABB               	incf	(___fltol@f1+1)^(0+128),f
  4136     09D9  1903               	skipnz
  4137     09DA  0ABC               	incf	(___fltol@f1+2)^(0+128),f
  4138     09DB  1903               	skipnz
  4139     09DC  0ABD               	incf	(___fltol@f1+3)^(0+128),f
  4140     09DD                     l662:
  4141     09DD                     l652:
  4142     09DD  0008               	return
  4143     09DE                     __end_of___fltol:
  4144                           
  4145                           	psect	text15
  4146     03C8                     __ptext15:	
  4147 ;; *************** function ___flmul *****************
  4148 ;; Defined at:
  4149 ;;		line 8 in file "C:\Program Files\Microchip\xc8\v2.40\pic\sources\c90\common\sprcmul.c"
  4150 ;; Parameters:    Size  Location     Type
  4151 ;;  b               4   23[BANK0 ] long 
  4152 ;;  a               4   27[BANK0 ] long 
  4153 ;; Auto vars:     Size  Location     Type
  4154 ;;  prod            4   43[BANK0 ] struct .
  4155 ;;  grs             4   37[BANK0 ] unsigned long 
  4156 ;;  temp            2   47[BANK0 ] struct .
  4157 ;;  bexp            1   42[BANK0 ] unsigned char 
  4158 ;;  aexp            1   41[BANK0 ] unsigned char 
  4159 ;;  sign            1   36[BANK0 ] unsigned char 
  4160 ;; Return value:  Size  Location     Type
  4161 ;;                  4   23[BANK0 ] unsigned char 
  4162 ;; Registers used:
  4163 ;;		wreg, status,2, status,0, btemp+1, pclath, cstack
  4164 ;; Tracked objects:
  4165 ;;		On entry : 0/0
  4166 ;;		On exit  : 0/0
  4167 ;;		Unchanged: 0/0
  4168 ;; Data sizes:     COMMON   BANK0   BANK1   BANK3   BANK2
  4169 ;;      Params:         0       8       0       0       0
  4170 ;;      Locals:         0      13       0       0       0
  4171 ;;      Temps:          0       5       0       0       0
  4172 ;;      Totals:         0      26       0       0       0
  4173 ;;Total ram usage:       26 bytes
  4174 ;; Hardware stack levels used: 1
  4175 ;; Hardware stack levels required when called: 4
  4176 ;; This function calls:
  4177 ;;		__Umul8_16
  4178 ;; This function is called by:
  4179 ;;		_PWM_config
  4180 ;;		_PWM_manual_config
  4181 ;; This function uses a non-reentrant model
  4182 ;;
  4183                           
  4184     03C8                     ___flmul:	
  4185                           ;psect for function ___flmul
  4186                           
  4187     03C8                     l2338:	
  4188                           ;incstack = 0
  4189                           ; Regs used in ___flmul: [wreg+status,2+status,0+btemp+1+pclath+cstack]
  4190                           
  4191     03C8  1283               	bcf	3,5	;RP0=0, select bank0
  4192     03C9  1303               	bcf	3,6	;RP1=0, select bank0
  4193     03CA  083A               	movf	___flmul@b+3,w
  4194     03CB  3980               	andlw	128
  4195     03CC  00C4               	movwf	___flmul@sign
  4196     03CD                     l2340:
  4197     03CD  083A               	movf	___flmul@b+3,w
  4198     03CE  00BF               	movwf	??___flmul
  4199     03CF  073F               	addwf	??___flmul,w
  4200     03D0  00CA               	movwf	___flmul@bexp
  4201     03D1                     l2342:
  4202     03D1  1FB9               	btfss	___flmul@b+2,7
  4203     03D2  2BD4               	goto	u2591
  4204     03D3  2BD5               	goto	u2590
  4205     03D4                     u2591:
  4206     03D4  2BD6               	goto	l2346
  4207     03D5                     u2590:
  4208     03D5                     l2344:
  4209     03D5  144A               	bsf	___flmul@bexp,0
  4210     03D6                     l2346:
  4211     03D6  084A               	movf	___flmul@bexp,w
  4212     03D7  1903               	btfsc	3,2
  4213     03D8  2BDA               	goto	u2601
  4214     03D9  2BDB               	goto	u2600
  4215     03DA                     u2601:
  4216     03DA  2BEA               	goto	l2354
  4217     03DB                     u2600:
  4218     03DB                     l2348:
  4219     03DB  0A4A               	incf	___flmul@bexp,w
  4220     03DC  1D03               	btfss	3,2
  4221     03DD  2BDF               	goto	u2611
  4222     03DE  2BE0               	goto	u2610
  4223     03DF                     u2611:
  4224     03DF  2BE8               	goto	l2352
  4225     03E0                     u2610:
  4226     03E0                     l2350:
  4227     03E0  3000               	movlw	0
  4228     03E1  00BA               	movwf	___flmul@b+3
  4229     03E2  3000               	movlw	0
  4230     03E3  00B9               	movwf	___flmul@b+2
  4231     03E4  3000               	movlw	0
  4232     03E5  00B8               	movwf	___flmul@b+1
  4233     03E6  3000               	movlw	0
  4234     03E7  00B7               	movwf	___flmul@b
  4235     03E8                     l2352:
  4236     03E8  17B9               	bsf	___flmul@b+2,7
  4237     03E9  2BF2               	goto	l2356
  4238     03EA                     l2354:
  4239     03EA  3000               	movlw	0
  4240     03EB  00BA               	movwf	___flmul@b+3
  4241     03EC  3000               	movlw	0
  4242     03ED  00B9               	movwf	___flmul@b+2
  4243     03EE  3000               	movlw	0
  4244     03EF  00B8               	movwf	___flmul@b+1
  4245     03F0  3000               	movlw	0
  4246     03F1  00B7               	movwf	___flmul@b
  4247     03F2                     l2356:
  4248     03F2  083E               	movf	___flmul@a+3,w
  4249     03F3  3980               	andlw	128
  4250     03F4  00BF               	movwf	??___flmul
  4251     03F5  083F               	movf	??___flmul,w
  4252     03F6  06C4               	xorwf	___flmul@sign,f
  4253     03F7                     l2358:
  4254     03F7  083E               	movf	___flmul@a+3,w
  4255     03F8  00BF               	movwf	??___flmul
  4256     03F9  073F               	addwf	??___flmul,w
  4257     03FA  00C9               	movwf	___flmul@aexp
  4258     03FB                     l2360:
  4259     03FB  1FBD               	btfss	___flmul@a+2,7
  4260     03FC  2BFE               	goto	u2621
  4261     03FD  2BFF               	goto	u2620
  4262     03FE                     u2621:
  4263     03FE  2C00               	goto	l2364
  4264     03FF                     u2620:
  4265     03FF                     l2362:
  4266     03FF  1449               	bsf	___flmul@aexp,0
  4267     0400                     l2364:
  4268     0400  0849               	movf	___flmul@aexp,w
  4269     0401  1903               	btfsc	3,2
  4270     0402  2C04               	goto	u2631
  4271     0403  2C05               	goto	u2630
  4272     0404                     u2631:
  4273     0404  2C14               	goto	l2372
  4274     0405                     u2630:
  4275     0405                     l2366:
  4276     0405  0A49               	incf	___flmul@aexp,w
  4277     0406  1D03               	btfss	3,2
  4278     0407  2C09               	goto	u2641
  4279     0408  2C0A               	goto	u2640
  4280     0409                     u2641:
  4281     0409  2C12               	goto	l2370
  4282     040A                     u2640:
  4283     040A                     l2368:
  4284     040A  3000               	movlw	0
  4285     040B  00BE               	movwf	___flmul@a+3
  4286     040C  3000               	movlw	0
  4287     040D  00BD               	movwf	___flmul@a+2
  4288     040E  3000               	movlw	0
  4289     040F  00BC               	movwf	___flmul@a+1
  4290     0410  3000               	movlw	0
  4291     0411  00BB               	movwf	___flmul@a
  4292     0412                     l2370:
  4293     0412  17BD               	bsf	___flmul@a+2,7
  4294     0413  2C1C               	goto	l2374
  4295     0414                     l2372:
  4296     0414  3000               	movlw	0
  4297     0415  00BE               	movwf	___flmul@a+3
  4298     0416  3000               	movlw	0
  4299     0417  00BD               	movwf	___flmul@a+2
  4300     0418  3000               	movlw	0
  4301     0419  00BC               	movwf	___flmul@a+1
  4302     041A  3000               	movlw	0
  4303     041B  00BB               	movwf	___flmul@a
  4304     041C                     l2374:
  4305     041C  0849               	movf	___flmul@aexp,w
  4306     041D  1903               	btfsc	3,2
  4307     041E  2C20               	goto	u2651
  4308     041F  2C21               	goto	u2650
  4309     0420                     u2651:
  4310     0420  2C26               	goto	l2378
  4311     0421                     u2650:
  4312     0421                     l2376:
  4313     0421  084A               	movf	___flmul@bexp,w
  4314     0422  1D03               	btfss	3,2
  4315     0423  2C25               	goto	u2661
  4316     0424  2C26               	goto	u2660
  4317     0425                     u2661:
  4318     0425  2C2F               	goto	l2382
  4319     0426                     u2660:
  4320     0426                     l2378:
  4321     0426  3000               	movlw	0
  4322     0427  00BA               	movwf	?___flmul+3
  4323     0428  3000               	movlw	0
  4324     0429  00B9               	movwf	?___flmul+2
  4325     042A  3000               	movlw	0
  4326     042B  00B8               	movwf	?___flmul+1
  4327     042C  3000               	movlw	0
  4328     042D  00B7               	movwf	?___flmul
  4329     042E  2F0C               	goto	l855
  4330     042F                     l2382:
  4331     042F  0837               	movf	___flmul@b,w
  4332     0430  00AE               	movwf	__Umul8_16@multiplicand
  4333     0431  083D               	movf	___flmul@a+2,w
  4334     0432  160A  118A  26C0  120A  118A  	fcall	__Umul8_16
  4335     0437  1283               	bcf	3,5	;RP0=0, select bank0
  4336     0438  1303               	bcf	3,6	;RP1=0, select bank0
  4337     0439  082F               	movf	?__Umul8_16+1,w
  4338     043A  00D0               	movwf	___flmul@temp+1
  4339     043B  082E               	movf	?__Umul8_16,w
  4340     043C  00CF               	movwf	___flmul@temp
  4341     043D                     l2384:
  4342     043D  084F               	movf	___flmul@temp,w
  4343     043E  00BF               	movwf	??___flmul
  4344     043F  01C0               	clrf	??___flmul+1
  4345     0440  01C1               	clrf	??___flmul+2
  4346     0441  01C2               	clrf	??___flmul+3
  4347     0442  0842               	movf	??___flmul+3,w
  4348     0443  00C8               	movwf	___flmul@grs+3
  4349     0444  0841               	movf	??___flmul+2,w
  4350     0445  00C7               	movwf	___flmul@grs+2
  4351     0446  0840               	movf	??___flmul+1,w
  4352     0447  00C6               	movwf	___flmul@grs+1
  4353     0448  083F               	movf	??___flmul,w
  4354     0449  00C5               	movwf	___flmul@grs
  4355     044A                     l2386:
  4356     044A  0850               	movf	___flmul@temp+1,w
  4357     044B  00BF               	movwf	??___flmul
  4358     044C  01C0               	clrf	??___flmul+1
  4359     044D  01C1               	clrf	??___flmul+2
  4360     044E  01C2               	clrf	??___flmul+3
  4361     044F  0842               	movf	??___flmul+3,w
  4362     0450  00CE               	movwf	___flmul@prod+3
  4363     0451  0841               	movf	??___flmul+2,w
  4364     0452  00CD               	movwf	___flmul@prod+2
  4365     0453  0840               	movf	??___flmul+1,w
  4366     0454  00CC               	movwf	___flmul@prod+1
  4367     0455  083F               	movf	??___flmul,w
  4368     0456  00CB               	movwf	___flmul@prod
  4369     0457  0838               	movf	___flmul@b+1,w
  4370     0458  00AE               	movwf	__Umul8_16@multiplicand
  4371     0459  083C               	movf	___flmul@a+1,w
  4372     045A  160A  118A  26C0  120A  118A  	fcall	__Umul8_16
  4373     045F  1283               	bcf	3,5	;RP0=0, select bank0
  4374     0460  1303               	bcf	3,6	;RP1=0, select bank0
  4375     0461  082F               	movf	?__Umul8_16+1,w
  4376     0462  00D0               	movwf	___flmul@temp+1
  4377     0463  082E               	movf	?__Umul8_16,w
  4378     0464  00CF               	movwf	___flmul@temp
  4379     0465                     l2388:
  4380     0465  084F               	movf	___flmul@temp,w
  4381     0466  00BF               	movwf	??___flmul
  4382     0467  01C0               	clrf	??___flmul+1
  4383     0468  01C1               	clrf	??___flmul+2
  4384     0469  01C2               	clrf	??___flmul+3
  4385     046A  083F               	movf	??___flmul,w
  4386     046B  07C5               	addwf	___flmul@grs,f
  4387     046C  0840               	movf	??___flmul+1,w
  4388     046D  1103               	clrz
  4389     046E  1803               	skipnc
  4390     046F  3E01               	addlw	1
  4391     0470  1903               	skipnz
  4392     0471  2C73               	goto	u2671
  4393     0472  07C6               	addwf	___flmul@grs+1,f
  4394     0473                     u2671:
  4395     0473  0841               	movf	??___flmul+2,w
  4396     0474  1103               	clrz
  4397     0475  1803               	skipnc
  4398     0476  3E01               	addlw	1
  4399     0477  1903               	skipnz
  4400     0478  2C7A               	goto	u2672
  4401     0479  07C7               	addwf	___flmul@grs+2,f
  4402     047A                     u2672:
  4403     047A  0842               	movf	??___flmul+3,w
  4404     047B  1103               	clrz
  4405     047C  1803               	skipnc
  4406     047D  3E01               	addlw	1
  4407     047E  1903               	skipnz
  4408     047F  2C81               	goto	u2673
  4409     0480  07C8               	addwf	___flmul@grs+3,f
  4410     0481                     u2673:
  4411     0481                     l2390:
  4412     0481  0850               	movf	___flmul@temp+1,w
  4413     0482  00BF               	movwf	??___flmul
  4414     0483  01C0               	clrf	??___flmul+1
  4415     0484  01C1               	clrf	??___flmul+2
  4416     0485  01C2               	clrf	??___flmul+3
  4417     0486  083F               	movf	??___flmul,w
  4418     0487  07CB               	addwf	___flmul@prod,f
  4419     0488  0840               	movf	??___flmul+1,w
  4420     0489  1103               	clrz
  4421     048A  1803               	skipnc
  4422     048B  3E01               	addlw	1
  4423     048C  1903               	skipnz
  4424     048D  2C8F               	goto	u2681
  4425     048E  07CC               	addwf	___flmul@prod+1,f
  4426     048F                     u2681:
  4427     048F  0841               	movf	??___flmul+2,w
  4428     0490  1103               	clrz
  4429     0491  1803               	skipnc
  4430     0492  3E01               	addlw	1
  4431     0493  1903               	skipnz
  4432     0494  2C96               	goto	u2682
  4433     0495  07CD               	addwf	___flmul@prod+2,f
  4434     0496                     u2682:
  4435     0496  0842               	movf	??___flmul+3,w
  4436     0497  1103               	clrz
  4437     0498  1803               	skipnc
  4438     0499  3E01               	addlw	1
  4439     049A  1903               	skipnz
  4440     049B  2C9D               	goto	u2683
  4441     049C  07CE               	addwf	___flmul@prod+3,f
  4442     049D                     u2683:
  4443     049D  0839               	movf	___flmul@b+2,w
  4444     049E  00AE               	movwf	__Umul8_16@multiplicand
  4445     049F  083B               	movf	___flmul@a,w
  4446     04A0  160A  118A  26C0  120A  118A  	fcall	__Umul8_16
  4447     04A5  1283               	bcf	3,5	;RP0=0, select bank0
  4448     04A6  1303               	bcf	3,6	;RP1=0, select bank0
  4449     04A7  082F               	movf	?__Umul8_16+1,w
  4450     04A8  00D0               	movwf	___flmul@temp+1
  4451     04A9  082E               	movf	?__Umul8_16,w
  4452     04AA  00CF               	movwf	___flmul@temp
  4453     04AB                     l2392:
  4454     04AB  084F               	movf	___flmul@temp,w
  4455     04AC  00BF               	movwf	??___flmul
  4456     04AD  01C0               	clrf	??___flmul+1
  4457     04AE  01C1               	clrf	??___flmul+2
  4458     04AF  01C2               	clrf	??___flmul+3
  4459     04B0  083F               	movf	??___flmul,w
  4460     04B1  07C5               	addwf	___flmul@grs,f
  4461     04B2  0840               	movf	??___flmul+1,w
  4462     04B3  1103               	clrz
  4463     04B4  1803               	skipnc
  4464     04B5  3E01               	addlw	1
  4465     04B6  1903               	skipnz
  4466     04B7  2CB9               	goto	u2691
  4467     04B8  07C6               	addwf	___flmul@grs+1,f
  4468     04B9                     u2691:
  4469     04B9  0841               	movf	??___flmul+2,w
  4470     04BA  1103               	clrz
  4471     04BB  1803               	skipnc
  4472     04BC  3E01               	addlw	1
  4473     04BD  1903               	skipnz
  4474     04BE  2CC0               	goto	u2692
  4475     04BF  07C7               	addwf	___flmul@grs+2,f
  4476     04C0                     u2692:
  4477     04C0  0842               	movf	??___flmul+3,w
  4478     04C1  1103               	clrz
  4479     04C2  1803               	skipnc
  4480     04C3  3E01               	addlw	1
  4481     04C4  1903               	skipnz
  4482     04C5  2CC7               	goto	u2693
  4483     04C6  07C8               	addwf	___flmul@grs+3,f
  4484     04C7                     u2693:
  4485     04C7                     l2394:
  4486     04C7  0850               	movf	___flmul@temp+1,w
  4487     04C8  00BF               	movwf	??___flmul
  4488     04C9  01C0               	clrf	??___flmul+1
  4489     04CA  01C1               	clrf	??___flmul+2
  4490     04CB  01C2               	clrf	??___flmul+3
  4491     04CC  083F               	movf	??___flmul,w
  4492     04CD  07CB               	addwf	___flmul@prod,f
  4493     04CE  0840               	movf	??___flmul+1,w
  4494     04CF  1103               	clrz
  4495     04D0  1803               	skipnc
  4496     04D1  3E01               	addlw	1
  4497     04D2  1903               	skipnz
  4498     04D3  2CD5               	goto	u2701
  4499     04D4  07CC               	addwf	___flmul@prod+1,f
  4500     04D5                     u2701:
  4501     04D5  0841               	movf	??___flmul+2,w
  4502     04D6  1103               	clrz
  4503     04D7  1803               	skipnc
  4504     04D8  3E01               	addlw	1
  4505     04D9  1903               	skipnz
  4506     04DA  2CDC               	goto	u2702
  4507     04DB  07CD               	addwf	___flmul@prod+2,f
  4508     04DC                     u2702:
  4509     04DC  0842               	movf	??___flmul+3,w
  4510     04DD  1103               	clrz
  4511     04DE  1803               	skipnc
  4512     04DF  3E01               	addlw	1
  4513     04E0  1903               	skipnz
  4514     04E1  2CE3               	goto	u2703
  4515     04E2  07CE               	addwf	___flmul@prod+3,f
  4516     04E3                     u2703:
  4517     04E3                     l2396:
  4518     04E3  3008               	movlw	8
  4519     04E4  00BF               	movwf	??___flmul
  4520     04E5                     u2715:
  4521     04E5  1003               	clrc
  4522     04E6  0DC5               	rlf	___flmul@grs,f
  4523     04E7  0DC6               	rlf	___flmul@grs+1,f
  4524     04E8  0DC7               	rlf	___flmul@grs+2,f
  4525     04E9  0DC8               	rlf	___flmul@grs+3,f
  4526     04EA  0BBF               	decfsz	??___flmul,f
  4527     04EB  2CE5               	goto	u2715
  4528     04EC                     l2398:
  4529     04EC  0838               	movf	___flmul@b+1,w
  4530     04ED  00AE               	movwf	__Umul8_16@multiplicand
  4531     04EE  083B               	movf	___flmul@a,w
  4532     04EF  160A  118A  26C0  120A  118A  	fcall	__Umul8_16
  4533     04F4  1283               	bcf	3,5	;RP0=0, select bank0
  4534     04F5  1303               	bcf	3,6	;RP1=0, select bank0
  4535     04F6  082F               	movf	?__Umul8_16+1,w
  4536     04F7  00D0               	movwf	___flmul@temp+1
  4537     04F8  082E               	movf	?__Umul8_16,w
  4538     04F9  00CF               	movwf	___flmul@temp
  4539     04FA                     l2400:
  4540     04FA  084F               	movf	___flmul@temp,w
  4541     04FB  00BF               	movwf	??___flmul
  4542     04FC  0850               	movf	___flmul@temp+1,w
  4543     04FD  00C0               	movwf	??___flmul+1
  4544     04FE  01C1               	clrf	??___flmul+2
  4545     04FF  01C2               	clrf	??___flmul+3
  4546     0500  083F               	movf	??___flmul,w
  4547     0501  07C5               	addwf	___flmul@grs,f
  4548     0502  0840               	movf	??___flmul+1,w
  4549     0503  1103               	clrz
  4550     0504  1803               	skipnc
  4551     0505  3E01               	addlw	1
  4552     0506  1903               	skipnz
  4553     0507  2D09               	goto	u2721
  4554     0508  07C6               	addwf	___flmul@grs+1,f
  4555     0509                     u2721:
  4556     0509  0841               	movf	??___flmul+2,w
  4557     050A  1103               	clrz
  4558     050B  1803               	skipnc
  4559     050C  3E01               	addlw	1
  4560     050D  1903               	skipnz
  4561     050E  2D10               	goto	u2722
  4562     050F  07C7               	addwf	___flmul@grs+2,f
  4563     0510                     u2722:
  4564     0510  0842               	movf	??___flmul+3,w
  4565     0511  1103               	clrz
  4566     0512  1803               	skipnc
  4567     0513  3E01               	addlw	1
  4568     0514  1903               	skipnz
  4569     0515  2D17               	goto	u2723
  4570     0516  07C8               	addwf	___flmul@grs+3,f
  4571     0517                     u2723:
  4572     0517                     l2402:
  4573     0517  0837               	movf	___flmul@b,w
  4574     0518  00AE               	movwf	__Umul8_16@multiplicand
  4575     0519  083C               	movf	___flmul@a+1,w
  4576     051A  160A  118A  26C0  120A  118A  	fcall	__Umul8_16
  4577     051F  1283               	bcf	3,5	;RP0=0, select bank0
  4578     0520  1303               	bcf	3,6	;RP1=0, select bank0
  4579     0521  082F               	movf	?__Umul8_16+1,w
  4580     0522  00D0               	movwf	___flmul@temp+1
  4581     0523  082E               	movf	?__Umul8_16,w
  4582     0524  00CF               	movwf	___flmul@temp
  4583     0525                     l2404:
  4584     0525  084F               	movf	___flmul@temp,w
  4585     0526  00BF               	movwf	??___flmul
  4586     0527  0850               	movf	___flmul@temp+1,w
  4587     0528  00C0               	movwf	??___flmul+1
  4588     0529  01C1               	clrf	??___flmul+2
  4589     052A  01C2               	clrf	??___flmul+3
  4590     052B  083F               	movf	??___flmul,w
  4591     052C  07C5               	addwf	___flmul@grs,f
  4592     052D  0840               	movf	??___flmul+1,w
  4593     052E  1103               	clrz
  4594     052F  1803               	skipnc
  4595     0530  3E01               	addlw	1
  4596     0531  1903               	skipnz
  4597     0532  2D34               	goto	u2731
  4598     0533  07C6               	addwf	___flmul@grs+1,f
  4599     0534                     u2731:
  4600     0534  0841               	movf	??___flmul+2,w
  4601     0535  1103               	clrz
  4602     0536  1803               	skipnc
  4603     0537  3E01               	addlw	1
  4604     0538  1903               	skipnz
  4605     0539  2D3B               	goto	u2732
  4606     053A  07C7               	addwf	___flmul@grs+2,f
  4607     053B                     u2732:
  4608     053B  0842               	movf	??___flmul+3,w
  4609     053C  1103               	clrz
  4610     053D  1803               	skipnc
  4611     053E  3E01               	addlw	1
  4612     053F  1903               	skipnz
  4613     0540  2D42               	goto	u2733
  4614     0541  07C8               	addwf	___flmul@grs+3,f
  4615     0542                     u2733:
  4616     0542                     l2406:
  4617     0542  3008               	movlw	8
  4618     0543  00BF               	movwf	??___flmul
  4619     0544                     u2745:
  4620     0544  1003               	clrc
  4621     0545  0DC5               	rlf	___flmul@grs,f
  4622     0546  0DC6               	rlf	___flmul@grs+1,f
  4623     0547  0DC7               	rlf	___flmul@grs+2,f
  4624     0548  0DC8               	rlf	___flmul@grs+3,f
  4625     0549  0BBF               	decfsz	??___flmul,f
  4626     054A  2D44               	goto	u2745
  4627     054B  0837               	movf	___flmul@b,w
  4628     054C  00AE               	movwf	__Umul8_16@multiplicand
  4629     054D  083B               	movf	___flmul@a,w
  4630     054E  160A  118A  26C0  120A  118A  	fcall	__Umul8_16
  4631     0553  1283               	bcf	3,5	;RP0=0, select bank0
  4632     0554  1303               	bcf	3,6	;RP1=0, select bank0
  4633     0555  082F               	movf	?__Umul8_16+1,w
  4634     0556  00D0               	movwf	___flmul@temp+1
  4635     0557  082E               	movf	?__Umul8_16,w
  4636     0558  00CF               	movwf	___flmul@temp
  4637     0559                     l2408:
  4638     0559  084F               	movf	___flmul@temp,w
  4639     055A  00BF               	movwf	??___flmul
  4640     055B  0850               	movf	___flmul@temp+1,w
  4641     055C  00C0               	movwf	??___flmul+1
  4642     055D  01C1               	clrf	??___flmul+2
  4643     055E  01C2               	clrf	??___flmul+3
  4644     055F  083F               	movf	??___flmul,w
  4645     0560  07C5               	addwf	___flmul@grs,f
  4646     0561  0840               	movf	??___flmul+1,w
  4647     0562  1103               	clrz
  4648     0563  1803               	skipnc
  4649     0564  3E01               	addlw	1
  4650     0565  1903               	skipnz
  4651     0566  2D68               	goto	u2751
  4652     0567  07C6               	addwf	___flmul@grs+1,f
  4653     0568                     u2751:
  4654     0568  0841               	movf	??___flmul+2,w
  4655     0569  1103               	clrz
  4656     056A  1803               	skipnc
  4657     056B  3E01               	addlw	1
  4658     056C  1903               	skipnz
  4659     056D  2D6F               	goto	u2752
  4660     056E  07C7               	addwf	___flmul@grs+2,f
  4661     056F                     u2752:
  4662     056F  0842               	movf	??___flmul+3,w
  4663     0570  1103               	clrz
  4664     0571  1803               	skipnc
  4665     0572  3E01               	addlw	1
  4666     0573  1903               	skipnz
  4667     0574  2D76               	goto	u2753
  4668     0575  07C8               	addwf	___flmul@grs+3,f
  4669     0576                     u2753:
  4670     0576                     l2410:
  4671     0576  0838               	movf	___flmul@b+1,w
  4672     0577  00AE               	movwf	__Umul8_16@multiplicand
  4673     0578  083D               	movf	___flmul@a+2,w
  4674     0579  160A  118A  26C0  120A  118A  	fcall	__Umul8_16
  4675     057E  1283               	bcf	3,5	;RP0=0, select bank0
  4676     057F  1303               	bcf	3,6	;RP1=0, select bank0
  4677     0580  082F               	movf	?__Umul8_16+1,w
  4678     0581  00D0               	movwf	___flmul@temp+1
  4679     0582  082E               	movf	?__Umul8_16,w
  4680     0583  00CF               	movwf	___flmul@temp
  4681     0584  084F               	movf	___flmul@temp,w
  4682     0585  00BF               	movwf	??___flmul
  4683     0586  0850               	movf	___flmul@temp+1,w
  4684     0587  00C0               	movwf	??___flmul+1
  4685     0588  01C1               	clrf	??___flmul+2
  4686     0589  01C2               	clrf	??___flmul+3
  4687     058A  083F               	movf	??___flmul,w
  4688     058B  07CB               	addwf	___flmul@prod,f
  4689     058C  0840               	movf	??___flmul+1,w
  4690     058D  1103               	clrz
  4691     058E  1803               	skipnc
  4692     058F  3E01               	addlw	1
  4693     0590  1903               	skipnz
  4694     0591  2D93               	goto	u2761
  4695     0592  07CC               	addwf	___flmul@prod+1,f
  4696     0593                     u2761:
  4697     0593  0841               	movf	??___flmul+2,w
  4698     0594  1103               	clrz
  4699     0595  1803               	skipnc
  4700     0596  3E01               	addlw	1
  4701     0597  1903               	skipnz
  4702     0598  2D9A               	goto	u2762
  4703     0599  07CD               	addwf	___flmul@prod+2,f
  4704     059A                     u2762:
  4705     059A  0842               	movf	??___flmul+3,w
  4706     059B  1103               	clrz
  4707     059C  1803               	skipnc
  4708     059D  3E01               	addlw	1
  4709     059E  1903               	skipnz
  4710     059F  2DA1               	goto	u2763
  4711     05A0  07CE               	addwf	___flmul@prod+3,f
  4712     05A1                     u2763:
  4713     05A1                     l2412:
  4714     05A1  0839               	movf	___flmul@b+2,w
  4715     05A2  00AE               	movwf	__Umul8_16@multiplicand
  4716     05A3  083C               	movf	___flmul@a+1,w
  4717     05A4  160A  118A  26C0  120A  118A  	fcall	__Umul8_16
  4718     05A9  1283               	bcf	3,5	;RP0=0, select bank0
  4719     05AA  1303               	bcf	3,6	;RP1=0, select bank0
  4720     05AB  082F               	movf	?__Umul8_16+1,w
  4721     05AC  00D0               	movwf	___flmul@temp+1
  4722     05AD  082E               	movf	?__Umul8_16,w
  4723     05AE  00CF               	movwf	___flmul@temp
  4724     05AF                     l2414:
  4725     05AF  084F               	movf	___flmul@temp,w
  4726     05B0  00BF               	movwf	??___flmul
  4727     05B1  0850               	movf	___flmul@temp+1,w
  4728     05B2  00C0               	movwf	??___flmul+1
  4729     05B3  01C1               	clrf	??___flmul+2
  4730     05B4  01C2               	clrf	??___flmul+3
  4731     05B5  083F               	movf	??___flmul,w
  4732     05B6  07CB               	addwf	___flmul@prod,f
  4733     05B7  0840               	movf	??___flmul+1,w
  4734     05B8  1103               	clrz
  4735     05B9  1803               	skipnc
  4736     05BA  3E01               	addlw	1
  4737     05BB  1903               	skipnz
  4738     05BC  2DBE               	goto	u2771
  4739     05BD  07CC               	addwf	___flmul@prod+1,f
  4740     05BE                     u2771:
  4741     05BE  0841               	movf	??___flmul+2,w
  4742     05BF  1103               	clrz
  4743     05C0  1803               	skipnc
  4744     05C1  3E01               	addlw	1
  4745     05C2  1903               	skipnz
  4746     05C3  2DC5               	goto	u2772
  4747     05C4  07CD               	addwf	___flmul@prod+2,f
  4748     05C5                     u2772:
  4749     05C5  0842               	movf	??___flmul+3,w
  4750     05C6  1103               	clrz
  4751     05C7  1803               	skipnc
  4752     05C8  3E01               	addlw	1
  4753     05C9  1903               	skipnz
  4754     05CA  2DCC               	goto	u2773
  4755     05CB  07CE               	addwf	___flmul@prod+3,f
  4756     05CC                     u2773:
  4757     05CC  0839               	movf	___flmul@b+2,w
  4758     05CD  00AE               	movwf	__Umul8_16@multiplicand
  4759     05CE  083D               	movf	___flmul@a+2,w
  4760     05CF  160A  118A  26C0  120A  118A  	fcall	__Umul8_16
  4761     05D4  1283               	bcf	3,5	;RP0=0, select bank0
  4762     05D5  1303               	bcf	3,6	;RP1=0, select bank0
  4763     05D6  082F               	movf	?__Umul8_16+1,w
  4764     05D7  00D0               	movwf	___flmul@temp+1
  4765     05D8  082E               	movf	?__Umul8_16,w
  4766     05D9  00CF               	movwf	___flmul@temp
  4767     05DA                     l2416:
  4768     05DA  084F               	movf	___flmul@temp,w
  4769     05DB  00BF               	movwf	??___flmul
  4770     05DC  0850               	movf	___flmul@temp+1,w
  4771     05DD  00C0               	movwf	??___flmul+1
  4772     05DE  01C1               	clrf	??___flmul+2
  4773     05DF  01C2               	clrf	??___flmul+3
  4774     05E0  3008               	movlw	8
  4775     05E1                     u2785:
  4776     05E1  1003               	clrc
  4777     05E2  0DBF               	rlf	??___flmul,f
  4778     05E3  0DC0               	rlf	??___flmul+1,f
  4779     05E4  0DC1               	rlf	??___flmul+2,f
  4780     05E5  0DC2               	rlf	??___flmul+3,f
  4781     05E6                     u2780:
  4782     05E6  3EFF               	addlw	-1
  4783     05E7  1D03               	skipz
  4784     05E8  2DE1               	goto	u2785
  4785     05E9  083F               	movf	??___flmul,w
  4786     05EA  07CB               	addwf	___flmul@prod,f
  4787     05EB  0840               	movf	??___flmul+1,w
  4788     05EC  1103               	clrz
  4789     05ED  1803               	skipnc
  4790     05EE  3E01               	addlw	1
  4791     05EF  1903               	skipnz
  4792     05F0  2DF2               	goto	u2791
  4793     05F1  07CC               	addwf	___flmul@prod+1,f
  4794     05F2                     u2791:
  4795     05F2  0841               	movf	??___flmul+2,w
  4796     05F3  1103               	clrz
  4797     05F4  1803               	skipnc
  4798     05F5  3E01               	addlw	1
  4799     05F6  1903               	skipnz
  4800     05F7  2DF9               	goto	u2792
  4801     05F8  07CD               	addwf	___flmul@prod+2,f
  4802     05F9                     u2792:
  4803     05F9  0842               	movf	??___flmul+3,w
  4804     05FA  1103               	clrz
  4805     05FB  1803               	skipnc
  4806     05FC  3E01               	addlw	1
  4807     05FD  1903               	skipnz
  4808     05FE  2E00               	goto	u2793
  4809     05FF  07CE               	addwf	___flmul@prod+3,f
  4810     0600                     u2793:
  4811     0600                     l2418:
  4812     0600  0845               	movf	___flmul@grs,w
  4813     0601  00BF               	movwf	??___flmul
  4814     0602  0846               	movf	___flmul@grs+1,w
  4815     0603  00C0               	movwf	??___flmul+1
  4816     0604  0847               	movf	___flmul@grs+2,w
  4817     0605  00C1               	movwf	??___flmul+2
  4818     0606  0848               	movf	___flmul@grs+3,w
  4819     0607  00C2               	movwf	??___flmul+3
  4820     0608  3018               	movlw	24
  4821     0609                     u2805:
  4822     0609  1003               	clrc
  4823     060A  0CC2               	rrf	??___flmul+3,f
  4824     060B  0CC1               	rrf	??___flmul+2,f
  4825     060C  0CC0               	rrf	??___flmul+1,f
  4826     060D  0CBF               	rrf	??___flmul,f
  4827     060E                     u2800:
  4828     060E  3EFF               	addlw	-1
  4829     060F  1D03               	skipz
  4830     0610  2E09               	goto	u2805
  4831     0611  083F               	movf	??___flmul,w
  4832     0612  07CB               	addwf	___flmul@prod,f
  4833     0613  0840               	movf	??___flmul+1,w
  4834     0614  1103               	clrz
  4835     0615  1803               	skipnc
  4836     0616  3E01               	addlw	1
  4837     0617  1903               	skipnz
  4838     0618  2E1A               	goto	u2811
  4839     0619  07CC               	addwf	___flmul@prod+1,f
  4840     061A                     u2811:
  4841     061A  0841               	movf	??___flmul+2,w
  4842     061B  1103               	clrz
  4843     061C  1803               	skipnc
  4844     061D  3E01               	addlw	1
  4845     061E  1903               	skipnz
  4846     061F  2E21               	goto	u2812
  4847     0620  07CD               	addwf	___flmul@prod+2,f
  4848     0621                     u2812:
  4849     0621  0842               	movf	??___flmul+3,w
  4850     0622  1103               	clrz
  4851     0623  1803               	skipnc
  4852     0624  3E01               	addlw	1
  4853     0625  1903               	skipnz
  4854     0626  2E28               	goto	u2813
  4855     0627  07CE               	addwf	___flmul@prod+3,f
  4856     0628                     u2813:
  4857     0628                     l2420:
  4858     0628  3008               	movlw	8
  4859     0629  00BF               	movwf	??___flmul
  4860     062A                     u2825:
  4861     062A  1003               	clrc
  4862     062B  0DC5               	rlf	___flmul@grs,f
  4863     062C  0DC6               	rlf	___flmul@grs+1,f
  4864     062D  0DC7               	rlf	___flmul@grs+2,f
  4865     062E  0DC8               	rlf	___flmul@grs+3,f
  4866     062F  0BBF               	decfsz	??___flmul,f
  4867     0630  2E2A               	goto	u2825
  4868     0631                     l2422:
  4869     0631  084A               	movf	___flmul@bexp,w
  4870     0632  0749               	addwf	___flmul@aexp,w
  4871     0633  00BF               	movwf	??___flmul
  4872     0634  01C0               	clrf	??___flmul+1
  4873     0635  0DC0               	rlf	??___flmul+1,f
  4874     0636  083F               	movf	??___flmul,w
  4875     0637  3E82               	addlw	130
  4876     0638  00CF               	movwf	___flmul@temp
  4877     0639  0840               	movf	??___flmul+1,w
  4878     063A  1803               	skipnc
  4879     063B  3E01               	addlw	1
  4880     063C  3EFF               	addlw	255
  4881     063D  00D0               	movwf	___flmul@temp+1
  4882     063E  2E5C               	goto	l2434
  4883     063F                     l2424:
  4884     063F  3001               	movlw	1
  4885     0640  00BF               	movwf	??___flmul
  4886     0641                     u2835:
  4887     0641  1003               	clrc
  4888     0642  0DCB               	rlf	___flmul@prod,f
  4889     0643  0DCC               	rlf	___flmul@prod+1,f
  4890     0644  0DCD               	rlf	___flmul@prod+2,f
  4891     0645  0DCE               	rlf	___flmul@prod+3,f
  4892     0646  0BBF               	decfsz	??___flmul,f
  4893     0647  2E41               	goto	u2835
  4894     0648                     l2426:
  4895     0648  1FC8               	btfss	___flmul@grs+3,7
  4896     0649  2E4B               	goto	u2841
  4897     064A  2E4C               	goto	u2840
  4898     064B                     u2841:
  4899     064B  2E4D               	goto	l2430
  4900     064C                     u2840:
  4901     064C                     l2428:
  4902     064C  144B               	bsf	___flmul@prod,0
  4903     064D                     l2430:
  4904     064D  3001               	movlw	1
  4905     064E  00BF               	movwf	??___flmul
  4906     064F                     u2855:
  4907     064F  1003               	clrc
  4908     0650  0DC5               	rlf	___flmul@grs,f
  4909     0651  0DC6               	rlf	___flmul@grs+1,f
  4910     0652  0DC7               	rlf	___flmul@grs+2,f
  4911     0653  0DC8               	rlf	___flmul@grs+3,f
  4912     0654  0BBF               	decfsz	??___flmul,f
  4913     0655  2E4F               	goto	u2855
  4914     0656                     l2432:
  4915     0656  30FF               	movlw	255
  4916     0657  07CF               	addwf	___flmul@temp,f
  4917     0658  1803               	skipnc
  4918     0659  0AD0               	incf	___flmul@temp+1,f
  4919     065A  30FF               	movlw	255
  4920     065B  07D0               	addwf	___flmul@temp+1,f
  4921     065C                     l2434:
  4922     065C  1FCD               	btfss	___flmul@prod+2,7
  4923     065D  2E5F               	goto	u2861
  4924     065E  2E60               	goto	u2860
  4925     065F                     u2861:
  4926     065F  2E3F               	goto	l2424
  4927     0660                     u2860:
  4928     0660                     l2436:
  4929     0660  01C9               	clrf	___flmul@aexp
  4930     0661                     l2438:
  4931     0661  1FC8               	btfss	___flmul@grs+3,7
  4932     0662  2E64               	goto	u2871
  4933     0663  2E65               	goto	u2870
  4934     0664                     u2871:
  4935     0664  2E81               	goto	l2446
  4936     0665                     u2870:
  4937     0665                     l2440:
  4938     0665  30FF               	movlw	255
  4939     0666  0545               	andwf	___flmul@grs,w
  4940     0667  00BF               	movwf	??___flmul
  4941     0668  30FF               	movlw	255
  4942     0669  0546               	andwf	___flmul@grs+1,w
  4943     066A  00C0               	movwf	??___flmul+1
  4944     066B  30FF               	movlw	255
  4945     066C  0547               	andwf	___flmul@grs+2,w
  4946     066D  00C1               	movwf	??___flmul+2
  4947     066E  307F               	movlw	127
  4948     066F  0548               	andwf	___flmul@grs+3,w
  4949     0670  00C2               	movwf	??___flmul+3
  4950     0671  0842               	movf	??___flmul+3,w
  4951     0672  0441               	iorwf	??___flmul+2,w
  4952     0673  0440               	iorwf	??___flmul+1,w
  4953     0674  043F               	iorwf	??___flmul,w
  4954     0675  1903               	skipnz
  4955     0676  2E78               	goto	u2881
  4956     0677  2E79               	goto	u2880
  4957     0678                     u2881:
  4958     0678  2E7C               	goto	l861
  4959     0679                     u2880:
  4960     0679                     l2442:
  4961     0679  01C9               	clrf	___flmul@aexp
  4962     067A  0AC9               	incf	___flmul@aexp,f
  4963     067B  2E81               	goto	l2446
  4964     067C                     l861:
  4965     067C  1C4B               	btfss	___flmul@prod,0
  4966     067D  2E7F               	goto	u2891
  4967     067E  2E80               	goto	u2890
  4968     067F                     u2891:
  4969     067F  2E81               	goto	l2446
  4970     0680                     u2890:
  4971     0680  2E79               	goto	l2442
  4972     0681                     l2446:
  4973     0681  0849               	movf	___flmul@aexp,w
  4974     0682  1903               	btfsc	3,2
  4975     0683  2E85               	goto	u2901
  4976     0684  2E86               	goto	u2900
  4977     0685                     u2901:
  4978     0685  2EB7               	goto	l2456
  4979     0686                     u2900:
  4980     0686                     l2448:
  4981     0686  3001               	movlw	1
  4982     0687  07CB               	addwf	___flmul@prod,f
  4983     0688  3000               	movlw	0
  4984     0689  1803               	skipnc
  4985     068A  3001               	movlw	1
  4986     068B  07CC               	addwf	___flmul@prod+1,f
  4987     068C  3000               	movlw	0
  4988     068D  1803               	skipnc
  4989     068E  3001               	movlw	1
  4990     068F  07CD               	addwf	___flmul@prod+2,f
  4991     0690  3000               	movlw	0
  4992     0691  1803               	skipnc
  4993     0692  3001               	movlw	1
  4994     0693  07CE               	addwf	___flmul@prod+3,f
  4995     0694                     l2450:
  4996     0694  1C4E               	btfss	___flmul@prod+3,0
  4997     0695  2E97               	goto	u2911
  4998     0696  2E98               	goto	u2910
  4999     0697                     u2911:
  5000     0697  2EB7               	goto	l2456
  5001     0698                     u2910:
  5002     0698                     l2452:
  5003     0698  084B               	movf	___flmul@prod,w
  5004     0699  00BF               	movwf	??___flmul
  5005     069A  084C               	movf	___flmul@prod+1,w
  5006     069B  00C0               	movwf	??___flmul+1
  5007     069C  084D               	movf	___flmul@prod+2,w
  5008     069D  00C1               	movwf	??___flmul+2
  5009     069E  084E               	movf	___flmul@prod+3,w
  5010     069F  00C2               	movwf	??___flmul+3
  5011     06A0  3001               	movlw	1
  5012     06A1  00C3               	movwf	??___flmul+4
  5013     06A2                     u2925:
  5014     06A2  0D42               	rlf	??___flmul+3,w
  5015     06A3  0CC2               	rrf	??___flmul+3,f
  5016     06A4  0CC1               	rrf	??___flmul+2,f
  5017     06A5  0CC0               	rrf	??___flmul+1,f
  5018     06A6  0CBF               	rrf	??___flmul,f
  5019     06A7                     u2920:
  5020     06A7  0BC3               	decfsz	??___flmul+4,f
  5021     06A8  2EA2               	goto	u2925
  5022     06A9  0842               	movf	??___flmul+3,w
  5023     06AA  00CE               	movwf	___flmul@prod+3
  5024     06AB  0841               	movf	??___flmul+2,w
  5025     06AC  00CD               	movwf	___flmul@prod+2
  5026     06AD  0840               	movf	??___flmul+1,w
  5027     06AE  00CC               	movwf	___flmul@prod+1
  5028     06AF  083F               	movf	??___flmul,w
  5029     06B0  00CB               	movwf	___flmul@prod
  5030     06B1                     l2454:
  5031     06B1  3001               	movlw	1
  5032     06B2  07CF               	addwf	___flmul@temp,f
  5033     06B3  1803               	skipnc
  5034     06B4  0AD0               	incf	___flmul@temp+1,f
  5035     06B5  3000               	movlw	0
  5036     06B6  07D0               	addwf	___flmul@temp+1,f
  5037     06B7                     l2456:
  5038     06B7  0850               	movf	___flmul@temp+1,w
  5039     06B8  3A80               	xorlw	128
  5040     06B9  00FF               	movwf	btemp+1
  5041     06BA  3080               	movlw	128
  5042     06BB  027F               	subwf	btemp+1,w
  5043     06BC  1D03               	skipz
  5044     06BD  2EC0               	goto	u2935
  5045     06BE  30FF               	movlw	255
  5046     06BF  024F               	subwf	___flmul@temp,w
  5047     06C0                     u2935:
  5048     06C0  1C03               	skipc
  5049     06C1  2EC3               	goto	u2931
  5050     06C2  2EC4               	goto	u2930
  5051     06C3                     u2931:
  5052     06C3  2ECF               	goto	l2460
  5053     06C4                     u2930:
  5054     06C4                     l2458:
  5055     06C4  307F               	movlw	127
  5056     06C5  1283               	bcf	3,5	;RP0=0, select bank0
  5057     06C6  1303               	bcf	3,6	;RP1=0, select bank0
  5058     06C7  00CE               	movwf	___flmul@prod+3
  5059     06C8  3080               	movlw	128
  5060     06C9  00CD               	movwf	___flmul@prod+2
  5061     06CA  3000               	movlw	0
  5062     06CB  00CC               	movwf	___flmul@prod+1
  5063     06CC  3000               	movlw	0
  5064     06CD  00CB               	movwf	___flmul@prod
  5065     06CE  2F00               	goto	l867
  5066     06CF                     l2460:
  5067     06CF  1283               	bcf	3,5	;RP0=0, select bank0
  5068     06D0  1303               	bcf	3,6	;RP1=0, select bank0
  5069     06D1  0850               	movf	___flmul@temp+1,w
  5070     06D2  3A80               	xorlw	128
  5071     06D3  00FF               	movwf	btemp+1
  5072     06D4  3080               	movlw	128
  5073     06D5  027F               	subwf	btemp+1,w
  5074     06D6  1D03               	skipz
  5075     06D7  2EDA               	goto	u2945
  5076     06D8  3001               	movlw	1
  5077     06D9  024F               	subwf	___flmul@temp,w
  5078     06DA                     u2945:
  5079     06DA  1803               	skipnc
  5080     06DB  2EDD               	goto	u2941
  5081     06DC  2EDE               	goto	u2940
  5082     06DD                     u2941:
  5083     06DD  2EEA               	goto	l2466
  5084     06DE                     u2940:
  5085     06DE                     l2462:
  5086     06DE  3000               	movlw	0
  5087     06DF  1283               	bcf	3,5	;RP0=0, select bank0
  5088     06E0  1303               	bcf	3,6	;RP1=0, select bank0
  5089     06E1  00CE               	movwf	___flmul@prod+3
  5090     06E2  3000               	movlw	0
  5091     06E3  00CD               	movwf	___flmul@prod+2
  5092     06E4  3000               	movlw	0
  5093     06E5  00CC               	movwf	___flmul@prod+1
  5094     06E6  3000               	movlw	0
  5095     06E7  00CB               	movwf	___flmul@prod
  5096     06E8                     l2464:
  5097     06E8  01C4               	clrf	___flmul@sign
  5098     06E9  2F00               	goto	l867
  5099     06EA                     l2466:
  5100     06EA  1283               	bcf	3,5	;RP0=0, select bank0
  5101     06EB  1303               	bcf	3,6	;RP1=0, select bank0
  5102     06EC  084F               	movf	___flmul@temp,w
  5103     06ED  00CA               	movwf	___flmul@bexp
  5104     06EE  30FF               	movlw	255
  5105     06EF  05CB               	andwf	___flmul@prod,f
  5106     06F0  30FF               	movlw	255
  5107     06F1  05CC               	andwf	___flmul@prod+1,f
  5108     06F2  307F               	movlw	127
  5109     06F3  05CD               	andwf	___flmul@prod+2,f
  5110     06F4  3000               	movlw	0
  5111     06F5  05CE               	andwf	___flmul@prod+3,f
  5112     06F6                     l2468:
  5113     06F6  1C4A               	btfss	___flmul@bexp,0
  5114     06F7  2EF9               	goto	u2951
  5115     06F8  2EFA               	goto	u2950
  5116     06F9                     u2951:
  5117     06F9  2EFB               	goto	l2472
  5118     06FA                     u2950:
  5119     06FA                     l2470:
  5120     06FA  17CD               	bsf	___flmul@prod+2,7
  5121     06FB                     l2472:
  5122     06FB  084A               	movf	___flmul@bexp,w
  5123     06FC  00BF               	movwf	??___flmul
  5124     06FD  1003               	clrc
  5125     06FE  0C3F               	rrf	??___flmul,w
  5126     06FF  00CE               	movwf	___flmul@prod+3
  5127     0700                     l867:
  5128     0700  0844               	movf	___flmul@sign,w
  5129     0701  00BF               	movwf	??___flmul
  5130     0702  083F               	movf	??___flmul,w
  5131     0703  04CE               	iorwf	___flmul@prod+3,f
  5132     0704                     l2474:
  5133     0704  084E               	movf	___flmul@prod+3,w
  5134     0705  00BA               	movwf	?___flmul+3
  5135     0706  084D               	movf	___flmul@prod+2,w
  5136     0707  00B9               	movwf	?___flmul+2
  5137     0708  084C               	movf	___flmul@prod+1,w
  5138     0709  00B8               	movwf	?___flmul+1
  5139     070A  084B               	movf	___flmul@prod,w
  5140     070B  00B7               	movwf	?___flmul
  5141     070C                     l855:
  5142     070C  0008               	return
  5143     070D                     __end_of___flmul:
  5144                           
  5145                           	psect	text16
  5146     16C0                     __ptext16:	
  5147 ;; *************** function __Umul8_16 *****************
  5148 ;; Defined at:
  5149 ;;		line 4 in file "C:\Program Files\Microchip\xc8\v2.40\pic\sources\c90\common\Umul8_16.c"
  5150 ;; Parameters:    Size  Location     Type
  5151 ;;  multiplier      1    wreg     unsigned char 
  5152 ;;  multiplicand    1   14[BANK0 ] unsigned char 
  5153 ;; Auto vars:     Size  Location     Type
  5154 ;;  multiplier      1   22[BANK0 ] unsigned char 
  5155 ;;  word_mpld       2   20[BANK0 ] unsigned int 
  5156 ;;  product         2   18[BANK0 ] unsigned int 
  5157 ;; Return value:  Size  Location     Type
  5158 ;;                  2   14[BANK0 ] unsigned int 
  5159 ;; Registers used:
  5160 ;;		wreg, status,2, status,0
  5161 ;; Tracked objects:
  5162 ;;		On entry : 0/0
  5163 ;;		On exit  : 0/0
  5164 ;;		Unchanged: 0/0
  5165 ;; Data sizes:     COMMON   BANK0   BANK1   BANK3   BANK2
  5166 ;;      Params:         0       2       0       0       0
  5167 ;;      Locals:         0       5       0       0       0
  5168 ;;      Temps:          0       2       0       0       0
  5169 ;;      Totals:         0       9       0       0       0
  5170 ;;Total ram usage:        9 bytes
  5171 ;; Hardware stack levels used: 1
  5172 ;; Hardware stack levels required when called: 3
  5173 ;; This function calls:
  5174 ;;		Nothing
  5175 ;; This function is called by:
  5176 ;;		___flmul
  5177 ;; This function uses a non-reentrant model
  5178 ;;
  5179                           
  5180     16C0                     __Umul8_16:	
  5181                           ;psect for function __Umul8_16
  5182                           
  5183                           
  5184                           ;incstack = 0
  5185                           ; Regs used in __Umul8_16: [wreg+status,2+status,0]
  5186                           ;__Umul8_16@multiplier stored from wreg
  5187     16C0  1283               	bcf	3,5	;RP0=0, select bank0
  5188     16C1  1303               	bcf	3,6	;RP1=0, select bank0
  5189     16C2  00B6               	movwf	__Umul8_16@multiplier
  5190     16C3                     l2110:
  5191     16C3  01B2               	clrf	__Umul8_16@product
  5192     16C4  01B3               	clrf	__Umul8_16@product+1
  5193     16C5                     l2112:
  5194     16C5  082E               	movf	__Umul8_16@multiplicand,w
  5195     16C6  00B0               	movwf	??__Umul8_16
  5196     16C7  01B1               	clrf	??__Umul8_16+1
  5197     16C8  0830               	movf	??__Umul8_16,w
  5198     16C9  00B4               	movwf	__Umul8_16@word_mpld
  5199     16CA  0831               	movf	??__Umul8_16+1,w
  5200     16CB  00B5               	movwf	__Umul8_16@word_mpld+1
  5201     16CC                     l2114:
  5202     16CC  1C36               	btfss	__Umul8_16@multiplier,0
  5203     16CD  2ECF               	goto	u2101
  5204     16CE  2ED0               	goto	u2100
  5205     16CF                     u2101:
  5206     16CF  2ED6               	goto	l874
  5207     16D0                     u2100:
  5208     16D0                     l2116:
  5209     16D0  0834               	movf	__Umul8_16@word_mpld,w
  5210     16D1  07B2               	addwf	__Umul8_16@product,f
  5211     16D2  1803               	skipnc
  5212     16D3  0AB3               	incf	__Umul8_16@product+1,f
  5213     16D4  0835               	movf	__Umul8_16@word_mpld+1,w
  5214     16D5  07B3               	addwf	__Umul8_16@product+1,f
  5215     16D6                     l874:
  5216     16D6  3001               	movlw	1
  5217     16D7                     u2115:
  5218     16D7  1003               	clrc
  5219     16D8  0DB4               	rlf	__Umul8_16@word_mpld,f
  5220     16D9  0DB5               	rlf	__Umul8_16@word_mpld+1,f
  5221     16DA  3EFF               	addlw	-1
  5222     16DB  1D03               	skipz
  5223     16DC  2ED7               	goto	u2115
  5224     16DD  1003               	clrc
  5225     16DE  0CB6               	rrf	__Umul8_16@multiplier,f
  5226     16DF                     l2118:
  5227     16DF  0836               	movf	__Umul8_16@multiplier,w
  5228     16E0  1D03               	btfss	3,2
  5229     16E1  2EE3               	goto	u2121
  5230     16E2  2EE4               	goto	u2120
  5231     16E3                     u2121:
  5232     16E3  2ECC               	goto	l2114
  5233     16E4                     u2120:
  5234     16E4                     l2120:
  5235     16E4  0833               	movf	__Umul8_16@product+1,w
  5236     16E5  00AF               	movwf	?__Umul8_16+1
  5237     16E6  0832               	movf	__Umul8_16@product,w
  5238     16E7  00AE               	movwf	?__Umul8_16
  5239     16E8                     l876:
  5240     16E8  0008               	return
  5241     16E9                     __end_of__Umul8_16:
  5242                           
  5243                           	psect	text17
  5244     0C5A                     __ptext17:	
  5245 ;; *************** function ___fldiv *****************
  5246 ;; Defined at:
  5247 ;;		line 8 in file "C:\Program Files\Microchip\xc8\v2.40\pic\sources\c90\common\sprcdiv.c"
  5248 ;; Parameters:    Size  Location     Type
  5249 ;;  a               4    0[BANK1 ] unsigned int 
  5250 ;;  b               4    4[BANK1 ] unsigned int 
  5251 ;; Auto vars:     Size  Location     Type
  5252 ;;  grs             4   20[BANK1 ] unsigned long 
  5253 ;;  rem             4   13[BANK1 ] unsigned long 
  5254 ;;  new_exp         2   18[BANK1 ] int 
  5255 ;;  aexp            1   25[BANK1 ] unsigned char 
  5256 ;;  bexp            1   24[BANK1 ] unsigned char 
  5257 ;;  sign            1   17[BANK1 ] unsigned char 
  5258 ;; Return value:  Size  Location     Type
  5259 ;;                  4    0[BANK1 ] unsigned char 
  5260 ;; Registers used:
  5261 ;;		wreg, status,2, status,0, btemp+1
  5262 ;; Tracked objects:
  5263 ;;		On entry : 0/0
  5264 ;;		On exit  : 0/0
  5265 ;;		Unchanged: 0/0
  5266 ;; Data sizes:     COMMON   BANK0   BANK1   BANK3   BANK2
  5267 ;;      Params:         0       0       8       0       0
  5268 ;;      Locals:         0       0      13       0       0
  5269 ;;      Temps:          0       0       5       0       0
  5270 ;;      Totals:         0       0      26       0       0
  5271 ;;Total ram usage:       26 bytes
  5272 ;; Hardware stack levels used: 1
  5273 ;; Hardware stack levels required when called: 3
  5274 ;; This function calls:
  5275 ;;		Nothing
  5276 ;; This function is called by:
  5277 ;;		_PWM_config
  5278 ;;		_PWM_manual_config
  5279 ;; This function uses a non-reentrant model
  5280 ;;
  5281                           
  5282     0C5A                     ___fldiv:	
  5283                           ;psect for function ___fldiv
  5284                           
  5285     0C5A                     l3168:	
  5286                           ;incstack = 0
  5287                           ; Regs used in ___fldiv: [wreg+status,2+status,0+btemp+1]
  5288                           
  5289     0C5A  1683               	bsf	3,5	;RP0=1, select bank1
  5290     0C5B  1303               	bcf	3,6	;RP1=0, select bank1
  5291     0C5C  0827               	movf	(___fldiv@b^(0+128)+3),w
  5292     0C5D  3980               	andlw	128
  5293     0C5E  00B1               	movwf	___fldiv@sign^(0+128)
  5294     0C5F                     l3170:
  5295     0C5F  0827               	movf	(___fldiv@b^(0+128)+3),w
  5296     0C60  00A8               	movwf	??___fldiv^(0+128)
  5297     0C61  0728               	addwf	??___fldiv^(0+128),w
  5298     0C62  00B8               	movwf	___fldiv@bexp^(0+128)
  5299     0C63                     l3172:
  5300     0C63  1FA6               	btfss	(___fldiv@b^(0+128)+2),7
  5301     0C64  2C66               	goto	u4021
  5302     0C65  2C67               	goto	u4020
  5303     0C66                     u4021:
  5304     0C66  2C68               	goto	l3176
  5305     0C67                     u4020:
  5306     0C67                     l3174:
  5307     0C67  1438               	bsf	___fldiv@bexp^(0+128),0
  5308     0C68                     l3176:
  5309     0C68  0838               	movf	___fldiv@bexp^(0+128),w
  5310     0C69  1903               	btfsc	3,2
  5311     0C6A  2C6C               	goto	u4031
  5312     0C6B  2C6D               	goto	u4030
  5313     0C6C                     u4031:
  5314     0C6C  2C7D               	goto	l3186
  5315     0C6D                     u4030:
  5316     0C6D                     l3178:
  5317     0C6D  0A38               	incf	___fldiv@bexp^(0+128),w
  5318     0C6E  1D03               	btfss	3,2
  5319     0C6F  2C71               	goto	u4041
  5320     0C70  2C72               	goto	u4040
  5321     0C71                     u4041:
  5322     0C71  2C7A               	goto	l3182
  5323     0C72                     u4040:
  5324     0C72                     l3180:
  5325     0C72  3000               	movlw	0
  5326     0C73  00A7               	movwf	(___fldiv@b+3)^(0+128)
  5327     0C74  3000               	movlw	0
  5328     0C75  00A6               	movwf	(___fldiv@b+2)^(0+128)
  5329     0C76  3000               	movlw	0
  5330     0C77  00A5               	movwf	(___fldiv@b+1)^(0+128)
  5331     0C78  3000               	movlw	0
  5332     0C79  00A4               	movwf	___fldiv@b^(0+128)
  5333     0C7A                     l3182:
  5334     0C7A  17A6               	bsf	(___fldiv@b^(0+128)+2),7
  5335     0C7B                     l3184:
  5336     0C7B  01A7               	clrf	(___fldiv@b^(0+128)+3)
  5337     0C7C  2C85               	goto	l3188
  5338     0C7D                     l3186:
  5339     0C7D  3000               	movlw	0
  5340     0C7E  00A7               	movwf	(___fldiv@b+3)^(0+128)
  5341     0C7F  3000               	movlw	0
  5342     0C80  00A6               	movwf	(___fldiv@b+2)^(0+128)
  5343     0C81  3000               	movlw	0
  5344     0C82  00A5               	movwf	(___fldiv@b+1)^(0+128)
  5345     0C83  3000               	movlw	0
  5346     0C84  00A4               	movwf	___fldiv@b^(0+128)
  5347     0C85                     l3188:
  5348     0C85  0823               	movf	(___fldiv@a^(0+128)+3),w
  5349     0C86  3980               	andlw	128
  5350     0C87  00A8               	movwf	??___fldiv^(0+128)
  5351     0C88  0828               	movf	??___fldiv^(0+128),w
  5352     0C89  06B1               	xorwf	___fldiv@sign^(0+128),f
  5353     0C8A                     l3190:
  5354     0C8A  0823               	movf	(___fldiv@a^(0+128)+3),w
  5355     0C8B  00A8               	movwf	??___fldiv^(0+128)
  5356     0C8C  0728               	addwf	??___fldiv^(0+128),w
  5357     0C8D  00B9               	movwf	___fldiv@aexp^(0+128)
  5358     0C8E                     l3192:
  5359     0C8E  1FA2               	btfss	(___fldiv@a^(0+128)+2),7
  5360     0C8F  2C91               	goto	u4051
  5361     0C90  2C92               	goto	u4050
  5362     0C91                     u4051:
  5363     0C91  2C93               	goto	l3196
  5364     0C92                     u4050:
  5365     0C92                     l3194:
  5366     0C92  1439               	bsf	___fldiv@aexp^(0+128),0
  5367     0C93                     l3196:
  5368     0C93  0839               	movf	___fldiv@aexp^(0+128),w
  5369     0C94  1903               	btfsc	3,2
  5370     0C95  2C97               	goto	u4061
  5371     0C96  2C98               	goto	u4060
  5372     0C97                     u4061:
  5373     0C97  2CA8               	goto	l3206
  5374     0C98                     u4060:
  5375     0C98                     l3198:
  5376     0C98  0A39               	incf	___fldiv@aexp^(0+128),w
  5377     0C99  1D03               	btfss	3,2
  5378     0C9A  2C9C               	goto	u4071
  5379     0C9B  2C9D               	goto	u4070
  5380     0C9C                     u4071:
  5381     0C9C  2CA5               	goto	l3202
  5382     0C9D                     u4070:
  5383     0C9D                     l3200:
  5384     0C9D  3000               	movlw	0
  5385     0C9E  00A3               	movwf	(___fldiv@a+3)^(0+128)
  5386     0C9F  3000               	movlw	0
  5387     0CA0  00A2               	movwf	(___fldiv@a+2)^(0+128)
  5388     0CA1  3000               	movlw	0
  5389     0CA2  00A1               	movwf	(___fldiv@a+1)^(0+128)
  5390     0CA3  3000               	movlw	0
  5391     0CA4  00A0               	movwf	___fldiv@a^(0+128)
  5392     0CA5                     l3202:
  5393     0CA5  17A2               	bsf	(___fldiv@a^(0+128)+2),7
  5394     0CA6                     l3204:
  5395     0CA6  01A3               	clrf	(___fldiv@a^(0+128)+3)
  5396     0CA7  2CB0               	goto	l815
  5397     0CA8                     l3206:
  5398     0CA8  3000               	movlw	0
  5399     0CA9  00A3               	movwf	(___fldiv@a+3)^(0+128)
  5400     0CAA  3000               	movlw	0
  5401     0CAB  00A2               	movwf	(___fldiv@a+2)^(0+128)
  5402     0CAC  3000               	movlw	0
  5403     0CAD  00A1               	movwf	(___fldiv@a+1)^(0+128)
  5404     0CAE  3000               	movlw	0
  5405     0CAF  00A0               	movwf	___fldiv@a^(0+128)
  5406     0CB0                     l815:
  5407     0CB0  0823               	movf	(___fldiv@a+3)^(0+128),w
  5408     0CB1  0422               	iorwf	(___fldiv@a+2)^(0+128),w
  5409     0CB2  0421               	iorwf	(___fldiv@a+1)^(0+128),w
  5410     0CB3  0420               	iorwf	___fldiv@a^(0+128),w
  5411     0CB4  1D03               	skipz
  5412     0CB5  2CB7               	goto	u4081
  5413     0CB6  2CB8               	goto	u4080
  5414     0CB7                     u4081:
  5415     0CB7  2CD1               	goto	l3216
  5416     0CB8                     u4080:
  5417     0CB8                     l3208:
  5418     0CB8  3000               	movlw	0
  5419     0CB9  00A7               	movwf	(___fldiv@b+3)^(0+128)
  5420     0CBA  3000               	movlw	0
  5421     0CBB  00A6               	movwf	(___fldiv@b+2)^(0+128)
  5422     0CBC  3000               	movlw	0
  5423     0CBD  00A5               	movwf	(___fldiv@b+1)^(0+128)
  5424     0CBE  3000               	movlw	0
  5425     0CBF  00A4               	movwf	___fldiv@b^(0+128)
  5426     0CC0  3080               	movlw	128
  5427     0CC1  04A6               	iorwf	(___fldiv@b^(0+128)+2),f
  5428     0CC2  307F               	movlw	127
  5429     0CC3  04A7               	iorwf	((___fldiv@b+1)^(0+128)+2),f
  5430     0CC4                     l3210:
  5431     0CC4  0831               	movf	___fldiv@sign^(0+128),w
  5432     0CC5  00A8               	movwf	??___fldiv^(0+128)
  5433     0CC6  0828               	movf	??___fldiv^(0+128),w
  5434     0CC7  04A7               	iorwf	(___fldiv@b^(0+128)+3),f
  5435     0CC8                     l3212:
  5436     0CC8  0827               	movf	(___fldiv@b+3)^(0+128),w
  5437     0CC9  00A3               	movwf	(?___fldiv+3)^(0+128)
  5438     0CCA  0826               	movf	(___fldiv@b+2)^(0+128),w
  5439     0CCB  00A2               	movwf	(?___fldiv+2)^(0+128)
  5440     0CCC  0825               	movf	(___fldiv@b+1)^(0+128),w
  5441     0CCD  00A1               	movwf	(?___fldiv+1)^(0+128)
  5442     0CCE  0824               	movf	___fldiv@b^(0+128),w
  5443     0CCF  00A0               	movwf	?___fldiv^(0+128)
  5444     0CD0  2E2C               	goto	l817
  5445     0CD1                     l3216:
  5446     0CD1  0838               	movf	___fldiv@bexp^(0+128),w
  5447     0CD2  1D03               	btfss	3,2
  5448     0CD3  2CD5               	goto	u4091
  5449     0CD4  2CD6               	goto	u4090
  5450     0CD5                     u4091:
  5451     0CD5  2CDF               	goto	l3222
  5452     0CD6                     u4090:
  5453     0CD6                     l3218:
  5454     0CD6  3000               	movlw	0
  5455     0CD7  00A3               	movwf	(?___fldiv+3)^(0+128)
  5456     0CD8  3000               	movlw	0
  5457     0CD9  00A2               	movwf	(?___fldiv+2)^(0+128)
  5458     0CDA  3000               	movlw	0
  5459     0CDB  00A1               	movwf	(?___fldiv+1)^(0+128)
  5460     0CDC  3000               	movlw	0
  5461     0CDD  00A0               	movwf	?___fldiv^(0+128)
  5462     0CDE  2E2C               	goto	l817
  5463     0CDF                     l3222:
  5464     0CDF  0838               	movf	___fldiv@bexp^(0+128),w
  5465     0CE0  00A8               	movwf	??___fldiv^(0+128)
  5466     0CE1  01A9               	clrf	(??___fldiv^(0+128)+1)
  5467     0CE2  0829               	movf	(??___fldiv+1)^(0+128),w
  5468     0CE3  00AB               	movwf	((??___fldiv+2)^(0+128)+1)
  5469     0CE4  0839               	movf	___fldiv@aexp^(0+128),w
  5470     0CE5  0228               	subwf	??___fldiv^(0+128),w
  5471     0CE6  00AA               	movwf	(??___fldiv+2)^(0+128)
  5472     0CE7  1C03               	skipc
  5473     0CE8  03AB               	decf	((??___fldiv+2)^(0+128)+1),f
  5474     0CE9  082A               	movf	(??___fldiv+2)^(0+128),w
  5475     0CEA  3E7F               	addlw	127
  5476     0CEB  00B2               	movwf	___fldiv@new_exp^(0+128)
  5477     0CEC  082B               	movf	(??___fldiv+3)^(0+128),w
  5478     0CED  1803               	skipnc
  5479     0CEE  3E01               	addlw	1
  5480     0CEF  3E00               	addlw	0
  5481     0CF0  00B3               	movwf	(___fldiv@new_exp+1)^(0+128)
  5482     0CF1                     l3224:
  5483     0CF1  0827               	movf	(___fldiv@b+3)^(0+128),w
  5484     0CF2  00B0               	movwf	(___fldiv@rem+3)^(0+128)
  5485     0CF3  0826               	movf	(___fldiv@b+2)^(0+128),w
  5486     0CF4  00AF               	movwf	(___fldiv@rem+2)^(0+128)
  5487     0CF5  0825               	movf	(___fldiv@b+1)^(0+128),w
  5488     0CF6  00AE               	movwf	(___fldiv@rem+1)^(0+128)
  5489     0CF7  0824               	movf	___fldiv@b^(0+128),w
  5490     0CF8  00AD               	movwf	___fldiv@rem^(0+128)
  5491     0CF9                     l3226:
  5492     0CF9  3000               	movlw	0
  5493     0CFA  00A7               	movwf	(___fldiv@b+3)^(0+128)
  5494     0CFB  3000               	movlw	0
  5495     0CFC  00A6               	movwf	(___fldiv@b+2)^(0+128)
  5496     0CFD  3000               	movlw	0
  5497     0CFE  00A5               	movwf	(___fldiv@b+1)^(0+128)
  5498     0CFF  3000               	movlw	0
  5499     0D00  00A4               	movwf	___fldiv@b^(0+128)
  5500     0D01                     l3228:
  5501     0D01  3000               	movlw	0
  5502     0D02  00B7               	movwf	(___fldiv@grs+3)^(0+128)
  5503     0D03  3000               	movlw	0
  5504     0D04  00B6               	movwf	(___fldiv@grs+2)^(0+128)
  5505     0D05  3000               	movlw	0
  5506     0D06  00B5               	movwf	(___fldiv@grs+1)^(0+128)
  5507     0D07  3000               	movlw	0
  5508     0D08  00B4               	movwf	___fldiv@grs^(0+128)
  5509     0D09                     l3230:
  5510     0D09  01B9               	clrf	___fldiv@aexp^(0+128)
  5511     0D0A  2D55               	goto	l3250
  5512     0D0B                     l3232:
  5513     0D0B  0839               	movf	___fldiv@aexp^(0+128),w
  5514     0D0C  1903               	btfsc	3,2
  5515     0D0D  2D0F               	goto	u4101
  5516     0D0E  2D10               	goto	u4100
  5517     0D0F                     u4101:
  5518     0D0F  2D30               	goto	l3242
  5519     0D10                     u4100:
  5520     0D10                     l3234:
  5521     0D10  3001               	movlw	1
  5522     0D11  00A8               	movwf	??___fldiv^(0+128)
  5523     0D12                     u4115:
  5524     0D12  1003               	clrc
  5525     0D13  0DAD               	rlf	___fldiv@rem^(0+128),f
  5526     0D14  0DAE               	rlf	(___fldiv@rem+1)^(0+128),f
  5527     0D15  0DAF               	rlf	(___fldiv@rem+2)^(0+128),f
  5528     0D16  0DB0               	rlf	(___fldiv@rem+3)^(0+128),f
  5529     0D17  0BA8               	decfsz	??___fldiv^(0+128),f
  5530     0D18  2D12               	goto	u4115
  5531     0D19  3001               	movlw	1
  5532     0D1A  00A8               	movwf	??___fldiv^(0+128)
  5533     0D1B                     u4125:
  5534     0D1B  1003               	clrc
  5535     0D1C  0DA4               	rlf	___fldiv@b^(0+128),f
  5536     0D1D  0DA5               	rlf	(___fldiv@b+1)^(0+128),f
  5537     0D1E  0DA6               	rlf	(___fldiv@b+2)^(0+128),f
  5538     0D1F  0DA7               	rlf	(___fldiv@b+3)^(0+128),f
  5539     0D20  0BA8               	decfsz	??___fldiv^(0+128),f
  5540     0D21  2D1B               	goto	u4125
  5541     0D22                     l3236:
  5542     0D22  1FB7               	btfss	(___fldiv@grs+3)^(0+128),7
  5543     0D23  2D25               	goto	u4131
  5544     0D24  2D26               	goto	u4130
  5545     0D25                     u4131:
  5546     0D25  2D27               	goto	l3240
  5547     0D26                     u4130:
  5548     0D26                     l3238:
  5549     0D26  1424               	bsf	___fldiv@b^(0+128),0
  5550     0D27                     l3240:
  5551     0D27  3001               	movlw	1
  5552     0D28  00A8               	movwf	??___fldiv^(0+128)
  5553     0D29                     u4145:
  5554     0D29  1003               	clrc
  5555     0D2A  0DB4               	rlf	___fldiv@grs^(0+128),f
  5556     0D2B  0DB5               	rlf	(___fldiv@grs+1)^(0+128),f
  5557     0D2C  0DB6               	rlf	(___fldiv@grs+2)^(0+128),f
  5558     0D2D  0DB7               	rlf	(___fldiv@grs+3)^(0+128),f
  5559     0D2E  0BA8               	decfsz	??___fldiv^(0+128),f
  5560     0D2F  2D29               	goto	u4145
  5561     0D30                     l3242:
  5562     0D30  0823               	movf	(___fldiv@a+3)^(0+128),w
  5563     0D31  0230               	subwf	(___fldiv@rem+3)^(0+128),w
  5564     0D32  1D03               	skipz
  5565     0D33  2D3E               	goto	u4155
  5566     0D34  0822               	movf	(___fldiv@a+2)^(0+128),w
  5567     0D35  022F               	subwf	(___fldiv@rem+2)^(0+128),w
  5568     0D36  1D03               	skipz
  5569     0D37  2D3E               	goto	u4155
  5570     0D38  0821               	movf	(___fldiv@a+1)^(0+128),w
  5571     0D39  022E               	subwf	(___fldiv@rem+1)^(0+128),w
  5572     0D3A  1D03               	skipz
  5573     0D3B  2D3E               	goto	u4155
  5574     0D3C  0820               	movf	___fldiv@a^(0+128),w
  5575     0D3D  022D               	subwf	___fldiv@rem^(0+128),w
  5576     0D3E                     u4155:
  5577     0D3E  1C03               	skipc
  5578     0D3F  2D41               	goto	u4151
  5579     0D40  2D42               	goto	u4150
  5580     0D41                     u4151:
  5581     0D41  2D51               	goto	l3248
  5582     0D42                     u4150:
  5583     0D42                     l3244:
  5584     0D42  1737               	bsf	(___fldiv@grs^(0+128)+3),6
  5585     0D43                     l3246:
  5586     0D43  0820               	movf	___fldiv@a^(0+128),w
  5587     0D44  02AD               	subwf	___fldiv@rem^(0+128),f
  5588     0D45  0821               	movf	(___fldiv@a+1)^(0+128),w
  5589     0D46  1C03               	skipc
  5590     0D47  0F21               	incfsz	(___fldiv@a+1)^(0+128),w
  5591     0D48  02AE               	subwf	(___fldiv@rem+1)^(0+128),f
  5592     0D49  0822               	movf	(___fldiv@a+2)^(0+128),w
  5593     0D4A  1C03               	skipc
  5594     0D4B  0F22               	incfsz	(___fldiv@a+2)^(0+128),w
  5595     0D4C  02AF               	subwf	(___fldiv@rem+2)^(0+128),f
  5596     0D4D  0823               	movf	(___fldiv@a+3)^(0+128),w
  5597     0D4E  1C03               	skipc
  5598     0D4F  0F23               	incfsz	(___fldiv@a+3)^(0+128),w
  5599     0D50  02B0               	subwf	(___fldiv@rem+3)^(0+128),f
  5600     0D51                     l3248:
  5601     0D51  3001               	movlw	1
  5602     0D52  00A8               	movwf	??___fldiv^(0+128)
  5603     0D53  0828               	movf	??___fldiv^(0+128),w
  5604     0D54  07B9               	addwf	___fldiv@aexp^(0+128),f
  5605     0D55                     l3250:
  5606     0D55  301A               	movlw	26
  5607     0D56  0239               	subwf	___fldiv@aexp^(0+128),w
  5608     0D57  1C03               	skipc
  5609     0D58  2D5A               	goto	u4161
  5610     0D59  2D5B               	goto	u4160
  5611     0D5A                     u4161:
  5612     0D5A  2D0B               	goto	l3232
  5613     0D5B                     u4160:
  5614     0D5B                     l3252:
  5615     0D5B  0830               	movf	(___fldiv@rem+3)^(0+128),w
  5616     0D5C  042F               	iorwf	(___fldiv@rem+2)^(0+128),w
  5617     0D5D  042E               	iorwf	(___fldiv@rem+1)^(0+128),w
  5618     0D5E  042D               	iorwf	___fldiv@rem^(0+128),w
  5619     0D5F  1903               	skipnz
  5620     0D60  2D62               	goto	u4171
  5621     0D61  2D63               	goto	u4170
  5622     0D62                     u4171:
  5623     0D62  2D82               	goto	l3266
  5624     0D63                     u4170:
  5625     0D63                     l3254:
  5626     0D63  1434               	bsf	___fldiv@grs^(0+128),0
  5627     0D64  2D82               	goto	l3266
  5628     0D65                     l3256:
  5629     0D65  3001               	movlw	1
  5630     0D66  00A8               	movwf	??___fldiv^(0+128)
  5631     0D67                     u4185:
  5632     0D67  1003               	clrc
  5633     0D68  0DA4               	rlf	___fldiv@b^(0+128),f
  5634     0D69  0DA5               	rlf	(___fldiv@b+1)^(0+128),f
  5635     0D6A  0DA6               	rlf	(___fldiv@b+2)^(0+128),f
  5636     0D6B  0DA7               	rlf	(___fldiv@b+3)^(0+128),f
  5637     0D6C  0BA8               	decfsz	??___fldiv^(0+128),f
  5638     0D6D  2D67               	goto	u4185
  5639     0D6E                     l3258:
  5640     0D6E  1FB7               	btfss	(___fldiv@grs+3)^(0+128),7
  5641     0D6F  2D71               	goto	u4191
  5642     0D70  2D72               	goto	u4190
  5643     0D71                     u4191:
  5644     0D71  2D73               	goto	l3262
  5645     0D72                     u4190:
  5646     0D72                     l3260:
  5647     0D72  1424               	bsf	___fldiv@b^(0+128),0
  5648     0D73                     l3262:
  5649     0D73  3001               	movlw	1
  5650     0D74  00A8               	movwf	??___fldiv^(0+128)
  5651     0D75                     u4205:
  5652     0D75  1003               	clrc
  5653     0D76  0DB4               	rlf	___fldiv@grs^(0+128),f
  5654     0D77  0DB5               	rlf	(___fldiv@grs+1)^(0+128),f
  5655     0D78  0DB6               	rlf	(___fldiv@grs+2)^(0+128),f
  5656     0D79  0DB7               	rlf	(___fldiv@grs+3)^(0+128),f
  5657     0D7A  0BA8               	decfsz	??___fldiv^(0+128),f
  5658     0D7B  2D75               	goto	u4205
  5659     0D7C                     l3264:
  5660     0D7C  30FF               	movlw	255
  5661     0D7D  07B2               	addwf	___fldiv@new_exp^(0+128),f
  5662     0D7E  1803               	skipnc
  5663     0D7F  0AB3               	incf	(___fldiv@new_exp+1)^(0+128),f
  5664     0D80  30FF               	movlw	255
  5665     0D81  07B3               	addwf	(___fldiv@new_exp+1)^(0+128),f
  5666     0D82                     l3266:
  5667     0D82  1FA6               	btfss	(___fldiv@b+2)^(0+128),7
  5668     0D83  2D85               	goto	u4211
  5669     0D84  2D86               	goto	u4210
  5670     0D85                     u4211:
  5671     0D85  2D65               	goto	l3256
  5672     0D86                     u4210:
  5673     0D86                     l3268:
  5674     0D86  01B9               	clrf	___fldiv@aexp^(0+128)
  5675     0D87                     l3270:
  5676     0D87  1FB7               	btfss	(___fldiv@grs+3)^(0+128),7
  5677     0D88  2D8A               	goto	u4221
  5678     0D89  2D8B               	goto	u4220
  5679     0D8A                     u4221:
  5680     0D8A  2DA7               	goto	l3278
  5681     0D8B                     u4220:
  5682     0D8B                     l3272:
  5683     0D8B  30FF               	movlw	255
  5684     0D8C  0534               	andwf	___fldiv@grs^(0+128),w
  5685     0D8D  00A8               	movwf	??___fldiv^(0+128)
  5686     0D8E  30FF               	movlw	255
  5687     0D8F  0535               	andwf	(___fldiv@grs+1)^(0+128),w
  5688     0D90  00A9               	movwf	(??___fldiv^(0+128)+1)
  5689     0D91  30FF               	movlw	255
  5690     0D92  0536               	andwf	(___fldiv@grs+2)^(0+128),w
  5691     0D93  00AA               	movwf	(??___fldiv^(0+128)+2)
  5692     0D94  307F               	movlw	127
  5693     0D95  0537               	andwf	(___fldiv@grs+3)^(0+128),w
  5694     0D96  00AB               	movwf	(??___fldiv^(0+128)+3)
  5695     0D97  082B               	movf	(??___fldiv+3)^(0+128),w
  5696     0D98  042A               	iorwf	(??___fldiv+2)^(0+128),w
  5697     0D99  0429               	iorwf	(??___fldiv+1)^(0+128),w
  5698     0D9A  0428               	iorwf	??___fldiv^(0+128),w
  5699     0D9B  1903               	skipnz
  5700     0D9C  2D9E               	goto	u4231
  5701     0D9D  2D9F               	goto	u4230
  5702     0D9E                     u4231:
  5703     0D9E  2DA2               	goto	l831
  5704     0D9F                     u4230:
  5705     0D9F                     l3274:
  5706     0D9F  01B9               	clrf	___fldiv@aexp^(0+128)
  5707     0DA0  0AB9               	incf	___fldiv@aexp^(0+128),f
  5708     0DA1  2DA7               	goto	l3278
  5709     0DA2                     l831:
  5710     0DA2  1C24               	btfss	___fldiv@b^(0+128),0
  5711     0DA3  2DA5               	goto	u4241
  5712     0DA4  2DA6               	goto	u4240
  5713     0DA5                     u4241:
  5714     0DA5  2DA7               	goto	l3278
  5715     0DA6                     u4240:
  5716     0DA6  2D9F               	goto	l3274
  5717     0DA7                     l3278:
  5718     0DA7  0839               	movf	___fldiv@aexp^(0+128),w
  5719     0DA8  1903               	btfsc	3,2
  5720     0DA9  2DAB               	goto	u4251
  5721     0DAA  2DAC               	goto	u4250
  5722     0DAB                     u4251:
  5723     0DAB  2DDD               	goto	l3288
  5724     0DAC                     u4250:
  5725     0DAC                     l3280:
  5726     0DAC  3001               	movlw	1
  5727     0DAD  07A4               	addwf	___fldiv@b^(0+128),f
  5728     0DAE  3000               	movlw	0
  5729     0DAF  1803               	skipnc
  5730     0DB0  3001               	movlw	1
  5731     0DB1  07A5               	addwf	(___fldiv@b+1)^(0+128),f
  5732     0DB2  3000               	movlw	0
  5733     0DB3  1803               	skipnc
  5734     0DB4  3001               	movlw	1
  5735     0DB5  07A6               	addwf	(___fldiv@b+2)^(0+128),f
  5736     0DB6  3000               	movlw	0
  5737     0DB7  1803               	skipnc
  5738     0DB8  3001               	movlw	1
  5739     0DB9  07A7               	addwf	(___fldiv@b+3)^(0+128),f
  5740     0DBA                     l3282:
  5741     0DBA  1C27               	btfss	(___fldiv@b+3)^(0+128),0
  5742     0DBB  2DBD               	goto	u4261
  5743     0DBC  2DBE               	goto	u4260
  5744     0DBD                     u4261:
  5745     0DBD  2DDD               	goto	l3288
  5746     0DBE                     u4260:
  5747     0DBE                     l3284:
  5748     0DBE  0824               	movf	___fldiv@b^(0+128),w
  5749     0DBF  00A8               	movwf	??___fldiv^(0+128)
  5750     0DC0  0825               	movf	(___fldiv@b+1)^(0+128),w
  5751     0DC1  00A9               	movwf	(??___fldiv^(0+128)+1)
  5752     0DC2  0826               	movf	(___fldiv@b+2)^(0+128),w
  5753     0DC3  00AA               	movwf	(??___fldiv^(0+128)+2)
  5754     0DC4  0827               	movf	(___fldiv@b+3)^(0+128),w
  5755     0DC5  00AB               	movwf	(??___fldiv^(0+128)+3)
  5756     0DC6  3001               	movlw	1
  5757     0DC7  00AC               	movwf	(??___fldiv+4)^(0+128)
  5758     0DC8                     u4275:
  5759     0DC8  0D2B               	rlf	(??___fldiv^(0+128)+3),w
  5760     0DC9  0CAB               	rrf	(??___fldiv^(0+128)+3),f
  5761     0DCA  0CAA               	rrf	(??___fldiv^(0+128)+2),f
  5762     0DCB  0CA9               	rrf	(??___fldiv^(0+128)+1),f
  5763     0DCC  0CA8               	rrf	??___fldiv^(0+128),f
  5764     0DCD                     u4270:
  5765     0DCD  0BAC               	decfsz	(??___fldiv+4)^(0+128),f
  5766     0DCE  2DC8               	goto	u4275
  5767     0DCF  082B               	movf	(??___fldiv+3)^(0+128),w
  5768     0DD0  00A7               	movwf	(___fldiv@b+3)^(0+128)
  5769     0DD1  082A               	movf	(??___fldiv+2)^(0+128),w
  5770     0DD2  00A6               	movwf	(___fldiv@b+2)^(0+128)
  5771     0DD3  0829               	movf	(??___fldiv+1)^(0+128),w
  5772     0DD4  00A5               	movwf	(___fldiv@b+1)^(0+128)
  5773     0DD5  0828               	movf	??___fldiv^(0+128),w
  5774     0DD6  00A4               	movwf	___fldiv@b^(0+128)
  5775     0DD7                     l3286:
  5776     0DD7  3001               	movlw	1
  5777     0DD8  07B2               	addwf	___fldiv@new_exp^(0+128),f
  5778     0DD9  1803               	skipnc
  5779     0DDA  0AB3               	incf	(___fldiv@new_exp+1)^(0+128),f
  5780     0DDB  3000               	movlw	0
  5781     0DDC  07B3               	addwf	(___fldiv@new_exp+1)^(0+128),f
  5782     0DDD                     l3288:
  5783     0DDD  0833               	movf	(___fldiv@new_exp+1)^(0+128),w
  5784     0DDE  3A80               	xorlw	128
  5785     0DDF  00FF               	movwf	btemp+1
  5786     0DE0  3080               	movlw	128
  5787     0DE1  027F               	subwf	btemp+1,w
  5788     0DE2  1D03               	skipz
  5789     0DE3  2DE6               	goto	u4285
  5790     0DE4  30FF               	movlw	255
  5791     0DE5  0232               	subwf	___fldiv@new_exp^(0+128),w
  5792     0DE6                     u4285:
  5793     0DE6  1C03               	skipc
  5794     0DE7  2DE9               	goto	u4281
  5795     0DE8  2DEA               	goto	u4280
  5796     0DE9                     u4281:
  5797     0DE9  2DF8               	goto	l3292
  5798     0DEA                     u4280:
  5799     0DEA                     l3290:
  5800     0DEA  30FF               	movlw	255
  5801     0DEB  1683               	bsf	3,5	;RP0=1, select bank1
  5802     0DEC  1303               	bcf	3,6	;RP1=0, select bank1
  5803     0DED  00B2               	movwf	___fldiv@new_exp^(0+128)
  5804     0DEE  3000               	movlw	0
  5805     0DEF  00B3               	movwf	(___fldiv@new_exp^(0+128)+1)
  5806     0DF0  3000               	movlw	0
  5807     0DF1  00A7               	movwf	(___fldiv@b+3)^(0+128)
  5808     0DF2  3000               	movlw	0
  5809     0DF3  00A6               	movwf	(___fldiv@b+2)^(0+128)
  5810     0DF4  3000               	movlw	0
  5811     0DF5  00A5               	movwf	(___fldiv@b+1)^(0+128)
  5812     0DF6  3000               	movlw	0
  5813     0DF7  00A4               	movwf	___fldiv@b^(0+128)
  5814     0DF8                     l3292:
  5815     0DF8  1683               	bsf	3,5	;RP0=1, select bank1
  5816     0DF9  1303               	bcf	3,6	;RP1=0, select bank1
  5817     0DFA  0833               	movf	(___fldiv@new_exp+1)^(0+128),w
  5818     0DFB  3A80               	xorlw	128
  5819     0DFC  00FF               	movwf	btemp+1
  5820     0DFD  3080               	movlw	128
  5821     0DFE  027F               	subwf	btemp+1,w
  5822     0DFF  1D03               	skipz
  5823     0E00  2E03               	goto	u4295
  5824     0E01  3001               	movlw	1
  5825     0E02  0232               	subwf	___fldiv@new_exp^(0+128),w
  5826     0E03                     u4295:
  5827     0E03  1803               	skipnc
  5828     0E04  2E06               	goto	u4291
  5829     0E05  2E07               	goto	u4290
  5830     0E06                     u4291:
  5831     0E06  2E14               	goto	l837
  5832     0E07                     u4290:
  5833     0E07                     l3294:
  5834     0E07  1683               	bsf	3,5	;RP0=1, select bank1
  5835     0E08  1303               	bcf	3,6	;RP1=0, select bank1
  5836     0E09  01B2               	clrf	___fldiv@new_exp^(0+128)
  5837     0E0A  01B3               	clrf	(___fldiv@new_exp+1)^(0+128)
  5838     0E0B                     l3296:
  5839     0E0B  3000               	movlw	0
  5840     0E0C  00A7               	movwf	(___fldiv@b+3)^(0+128)
  5841     0E0D  3000               	movlw	0
  5842     0E0E  00A6               	movwf	(___fldiv@b+2)^(0+128)
  5843     0E0F  3000               	movlw	0
  5844     0E10  00A5               	movwf	(___fldiv@b+1)^(0+128)
  5845     0E11  3000               	movlw	0
  5846     0E12  00A4               	movwf	___fldiv@b^(0+128)
  5847     0E13                     l3298:
  5848     0E13  01B1               	clrf	___fldiv@sign^(0+128)
  5849     0E14                     l837:
  5850     0E14  1683               	bsf	3,5	;RP0=1, select bank1
  5851     0E15  1303               	bcf	3,6	;RP1=0, select bank1
  5852     0E16  0832               	movf	___fldiv@new_exp^(0+128),w
  5853     0E17  00B8               	movwf	___fldiv@bexp^(0+128)
  5854     0E18                     l3300:
  5855     0E18  1C38               	btfss	___fldiv@bexp^(0+128),0
  5856     0E19  2E1B               	goto	u4301
  5857     0E1A  2E1C               	goto	u4300
  5858     0E1B                     u4301:
  5859     0E1B  2E1E               	goto	l3304
  5860     0E1C                     u4300:
  5861     0E1C                     l3302:
  5862     0E1C  17A6               	bsf	(___fldiv@b^(0+128)+2),7
  5863     0E1D  2E22               	goto	l839
  5864     0E1E                     l3304:
  5865     0E1E  307F               	movlw	127
  5866     0E1F  00A8               	movwf	??___fldiv^(0+128)
  5867     0E20  0828               	movf	??___fldiv^(0+128),w
  5868     0E21  05A6               	andwf	(___fldiv@b^(0+128)+2),f
  5869     0E22                     l839:
  5870     0E22  0838               	movf	___fldiv@bexp^(0+128),w
  5871     0E23  00A8               	movwf	??___fldiv^(0+128)
  5872     0E24  1003               	clrc
  5873     0E25  0C28               	rrf	??___fldiv^(0+128),w
  5874     0E26  00A7               	movwf	(___fldiv@b^(0+128)+3)
  5875     0E27  0831               	movf	___fldiv@sign^(0+128),w
  5876     0E28  00A8               	movwf	??___fldiv^(0+128)
  5877     0E29  0828               	movf	??___fldiv^(0+128),w
  5878     0E2A  04A7               	iorwf	(___fldiv@b^(0+128)+3),f
  5879     0E2B  2CC8               	goto	l3212
  5880     0E2C                     l817:
  5881     0E2C  0008               	return
  5882     0E2D                     __end_of___fldiv:
  5883                           
  5884                           	psect	text18
  5885     003F                     __ptext18:	
  5886 ;; *************** function _isr *****************
  5887 ;; Defined at:
  5888 ;;		line 96 in file "Proyecto_Micros.c"
  5889 ;; Parameters:    Size  Location     Type
  5890 ;;		None
  5891 ;; Auto vars:     Size  Location     Type
  5892 ;;		None
  5893 ;; Return value:  Size  Location     Type
  5894 ;;                  1    wreg      void 
  5895 ;; Registers used:
  5896 ;;		wreg, status,2, status,0, pclath, cstack
  5897 ;; Tracked objects:
  5898 ;;		On entry : 0/0
  5899 ;;		On exit  : 0/0
  5900 ;;		Unchanged: 0/0
  5901 ;; Data sizes:     COMMON   BANK0   BANK1   BANK3   BANK2
  5902 ;;      Params:         0       0       0       0       0
  5903 ;;      Locals:         0       0       0       0       0
  5904 ;;      Temps:          0       4       0       0       0
  5905 ;;      Totals:         0       4       0       0       0
  5906 ;;Total ram usage:        4 bytes
  5907 ;; Hardware stack levels used: 1
  5908 ;; Hardware stack levels required when called: 2
  5909 ;; This function calls:
  5910 ;;		_write_EEPROM
  5911 ;;		i1_map
  5912 ;;		i1_read_EEPROM
  5913 ;; This function is called by:
  5914 ;;		Interrupt level 1
  5915 ;; This function uses a non-reentrant model
  5916 ;;
  5917                           
  5918     003F                     _isr:	
  5919                           ;psect for function _isr
  5920                           
  5921     003F                     i1l2772:
  5922                           
  5923                           ;Proyecto_Micros.c: 106:     if (ADIF){
  5924     003F  1F0C               	btfss	12,6	;volatile
  5925     0040  2842               	goto	u322_21
  5926     0041  2843               	goto	u322_20
  5927     0042                     u322_21:
  5928     0042  28B6               	goto	i1l2800
  5929     0043                     u322_20:
  5930     0043                     i1l2774:
  5931                           
  5932                           ;Proyecto_Micros.c: 107:         if (ADCON0bits.CHS == 0b0000) {
  5933     0043  0C1F               	rrf	31,w	;volatile
  5934     0044  00AA               	movwf	??_isr
  5935     0045  0C2A               	rrf	??_isr,w
  5936     0046  390F               	andlw	15
  5937     0047  3A00               	xorlw	0
  5938     0048  1D03               	skipz
  5939     0049  284B               	goto	u323_21
  5940     004A  284C               	goto	u323_20
  5941     004B                     u323_21:
  5942     004B  2860               	goto	i1l2780
  5943     004C                     u323_20:
  5944     004C                     i1l2776:
  5945                           
  5946                           ;Proyecto_Micros.c: 108:             adc00 = ADRESH;
  5947     004C  081E               	movf	30,w	;volatile
  5948     004D  00AA               	movwf	??_isr
  5949     004E  01AB               	clrf	??_isr+1
  5950     004F  082A               	movf	??_isr,w
  5951     0050  1683               	bsf	3,5	;RP0=1, select bank1
  5952     0051  1303               	bcf	3,6	;RP1=0, select bank1
  5953     0052  00E8               	movwf	_adc00^(0+128)
  5954     0053  1283               	bcf	3,5	;RP0=0, select bank0
  5955     0054  1303               	bcf	3,6	;RP1=0, select bank0
  5956     0055  082B               	movf	??_isr+1,w
  5957     0056  1683               	bsf	3,5	;RP0=1, select bank1
  5958     0057  1303               	bcf	3,6	;RP1=0, select bank1
  5959     0058  00E9               	movwf	(_adc00+1)^(0+128)
  5960     0059                     i1l2778:
  5961                           
  5962                           ;Proyecto_Micros.c: 109:             ADCON0bits.CHS = 0b0001;
  5963     0059  1283               	bcf	3,5	;RP0=0, select bank0
  5964     005A  1303               	bcf	3,6	;RP1=0, select bank0
  5965     005B  081F               	movf	31,w	;volatile
  5966     005C  39C3               	andlw	-61
  5967     005D  3804               	iorlw	4
  5968     005E  009F               	movwf	31	;volatile
  5969                           
  5970                           ;Proyecto_Micros.c: 110:         } else if (ADCON0bits.CHS == 0b0001){
  5971     005F  28B5               	goto	i1l2798
  5972     0060                     i1l2780:
  5973     0060  0C1F               	rrf	31,w	;volatile
  5974     0061  00AA               	movwf	??_isr
  5975     0062  0C2A               	rrf	??_isr,w
  5976     0063  390F               	andlw	15
  5977     0064  3A01               	xorlw	1
  5978     0065  1D03               	skipz
  5979     0066  2868               	goto	u324_21
  5980     0067  2869               	goto	u324_20
  5981     0068                     u324_21:
  5982     0068  287D               	goto	i1l2786
  5983     0069                     u324_20:
  5984     0069                     i1l2782:
  5985                           
  5986                           ;Proyecto_Micros.c: 111:             adc01 = ADRESH;
  5987     0069  081E               	movf	30,w	;volatile
  5988     006A  00AA               	movwf	??_isr
  5989     006B  01AB               	clrf	??_isr+1
  5990     006C  082A               	movf	??_isr,w
  5991     006D  1683               	bsf	3,5	;RP0=1, select bank1
  5992     006E  1303               	bcf	3,6	;RP1=0, select bank1
  5993     006F  00E6               	movwf	_adc01^(0+128)
  5994     0070  1283               	bcf	3,5	;RP0=0, select bank0
  5995     0071  1303               	bcf	3,6	;RP1=0, select bank0
  5996     0072  082B               	movf	??_isr+1,w
  5997     0073  1683               	bsf	3,5	;RP0=1, select bank1
  5998     0074  1303               	bcf	3,6	;RP1=0, select bank1
  5999     0075  00E7               	movwf	(_adc01+1)^(0+128)
  6000     0076                     i1l2784:
  6001                           
  6002                           ;Proyecto_Micros.c: 112:             ADCON0bits.CHS = 0b0010;
  6003     0076  1283               	bcf	3,5	;RP0=0, select bank0
  6004     0077  1303               	bcf	3,6	;RP1=0, select bank0
  6005     0078  081F               	movf	31,w	;volatile
  6006     0079  39C3               	andlw	-61
  6007     007A  3808               	iorlw	8
  6008     007B  009F               	movwf	31	;volatile
  6009                           
  6010                           ;Proyecto_Micros.c: 113:         } else if (ADCON0bits.CHS == 0b0010){
  6011     007C  28B5               	goto	i1l2798
  6012     007D                     i1l2786:
  6013     007D  0C1F               	rrf	31,w	;volatile
  6014     007E  00AA               	movwf	??_isr
  6015     007F  0C2A               	rrf	??_isr,w
  6016     0080  390F               	andlw	15
  6017     0081  3A02               	xorlw	2
  6018     0082  1D03               	skipz
  6019     0083  2885               	goto	u325_21
  6020     0084  2886               	goto	u325_20
  6021     0085                     u325_21:
  6022     0085  289A               	goto	i1l2792
  6023     0086                     u325_20:
  6024     0086                     i1l2788:
  6025                           
  6026                           ;Proyecto_Micros.c: 114:             adc10 = ADRESH;
  6027     0086  081E               	movf	30,w	;volatile
  6028     0087  00AA               	movwf	??_isr
  6029     0088  01AB               	clrf	??_isr+1
  6030     0089  082A               	movf	??_isr,w
  6031     008A  1683               	bsf	3,5	;RP0=1, select bank1
  6032     008B  1303               	bcf	3,6	;RP1=0, select bank1
  6033     008C  00E2               	movwf	_adc10^(0+128)
  6034     008D  1283               	bcf	3,5	;RP0=0, select bank0
  6035     008E  1303               	bcf	3,6	;RP1=0, select bank0
  6036     008F  082B               	movf	??_isr+1,w
  6037     0090  1683               	bsf	3,5	;RP0=1, select bank1
  6038     0091  1303               	bcf	3,6	;RP1=0, select bank1
  6039     0092  00E3               	movwf	(_adc10+1)^(0+128)
  6040     0093                     i1l2790:
  6041                           
  6042                           ;Proyecto_Micros.c: 115:             ADCON0bits.CHS = 0b0011;
  6043     0093  1283               	bcf	3,5	;RP0=0, select bank0
  6044     0094  1303               	bcf	3,6	;RP1=0, select bank0
  6045     0095  081F               	movf	31,w	;volatile
  6046     0096  39C3               	andlw	-61
  6047     0097  380C               	iorlw	12
  6048     0098  009F               	movwf	31	;volatile
  6049                           
  6050                           ;Proyecto_Micros.c: 116:         } else if (ADCON0bits.CHS == 0b0011){
  6051     0099  28B5               	goto	i1l2798
  6052     009A                     i1l2792:
  6053     009A  0C1F               	rrf	31,w	;volatile
  6054     009B  00AA               	movwf	??_isr
  6055     009C  0C2A               	rrf	??_isr,w
  6056     009D  390F               	andlw	15
  6057     009E  3A03               	xorlw	3
  6058     009F  1D03               	skipz
  6059     00A0  28A2               	goto	u326_21
  6060     00A1  28A3               	goto	u326_20
  6061     00A2                     u326_21:
  6062     00A2  28B5               	goto	i1l175
  6063     00A3                     u326_20:
  6064     00A3                     i1l2794:
  6065                           
  6066                           ;Proyecto_Micros.c: 117:             adc11 = ADRESH;
  6067     00A3  081E               	movf	30,w	;volatile
  6068     00A4  00AA               	movwf	??_isr
  6069     00A5  01AB               	clrf	??_isr+1
  6070     00A6  082A               	movf	??_isr,w
  6071     00A7  1683               	bsf	3,5	;RP0=1, select bank1
  6072     00A8  1303               	bcf	3,6	;RP1=0, select bank1
  6073     00A9  00E4               	movwf	_adc11^(0+128)
  6074     00AA  1283               	bcf	3,5	;RP0=0, select bank0
  6075     00AB  1303               	bcf	3,6	;RP1=0, select bank0
  6076     00AC  082B               	movf	??_isr+1,w
  6077     00AD  1683               	bsf	3,5	;RP0=1, select bank1
  6078     00AE  1303               	bcf	3,6	;RP1=0, select bank1
  6079     00AF  00E5               	movwf	(_adc11+1)^(0+128)
  6080     00B0                     i1l2796:
  6081                           
  6082                           ;Proyecto_Micros.c: 118:             ADCON0bits.CHS = 0b0000;
  6083     00B0  30C3               	movlw	-61
  6084     00B1  1283               	bcf	3,5	;RP0=0, select bank0
  6085     00B2  1303               	bcf	3,6	;RP1=0, select bank0
  6086     00B3  059F               	andwf	31,f	;volatile
  6087     00B4  28B5               	goto	i1l2798
  6088     00B5                     i1l175:
  6089     00B5                     i1l2798:
  6090                           
  6091                           ;Proyecto_Micros.c: 120:         PIR1bits.ADIF = 0;
  6092     00B5  130C               	bcf	12,6	;volatile
  6093     00B6                     i1l2800:
  6094                           
  6095                           ;Proyecto_Micros.c: 125:     if(RCIF){
  6096     00B6  1E8C               	btfss	12,5	;volatile
  6097     00B7  28B9               	goto	u327_21
  6098     00B8  28BA               	goto	u327_20
  6099     00B9                     u327_21:
  6100     00B9  2A99               	goto	i1l2932
  6101     00BA                     u327_20:
  6102     00BA                     i1l2802:
  6103                           
  6104                           ;Proyecto_Micros.c: 126:         if (modo_funcionamiento == 2 && activador_modo == 1){
  6105     00BA  3002               	movlw	2
  6106     00BB  065B               	xorwf	_modo_funcionamiento,w
  6107     00BC  1D03               	btfss	3,2
  6108     00BD  28BF               	goto	u328_21
  6109     00BE  28C0               	goto	u328_20
  6110     00BF                     u328_21:
  6111     00BF  29DB               	goto	i1l2878
  6112     00C0                     u328_20:
  6113     00C0                     i1l2804:
  6114     00C0  035A               	decf	_activador_modo,w
  6115     00C1  1D03               	btfss	3,2
  6116     00C2  28C4               	goto	u329_21
  6117     00C3  28C5               	goto	u329_20
  6118     00C4                     u329_21:
  6119     00C4  29DB               	goto	i1l2878
  6120     00C5                     u329_20:
  6121     00C5                     i1l2806:
  6122                           
  6123                           ;Proyecto_Micros.c: 128:             valorDIAL = RCREG;
  6124     00C5  081A               	movf	26,w	;volatile
  6125     00C6  00D7               	movwf	_valorDIAL
  6126     00C7                     i1l2808:
  6127     00C7                     i1l2810:	
  6128                           ;Proyecto_Micros.c: 129:             _delay((unsigned long)((2)*(500000/4000000.0)));
  6129                           
  6130                           
  6131                           ;Proyecto_Micros.c: 131:             if (valorDIAL == 0){
  6132     00C7  1283               	bcf	3,5	;RP0=0, select bank0
  6133     00C8  1303               	bcf	3,6	;RP1=0, select bank0
  6134     00C9  0857               	movf	_valorDIAL,w
  6135     00CA  1D03               	btfss	3,2
  6136     00CB  28CD               	goto	u330_21
  6137     00CC  28CE               	goto	u330_20
  6138     00CD                     u330_21:
  6139     00CD  2900               	goto	i1l2828
  6140     00CE                     u330_20:
  6141     00CE                     i1l2812:
  6142                           
  6143                           ;Proyecto_Micros.c: 132:                 if (selectSERVO == 1){
  6144     00CE  0355               	decf	_selectSERVO,w
  6145     00CF  1D03               	btfss	3,2
  6146     00D0  28D2               	goto	u331_21
  6147     00D1  28D3               	goto	u331_20
  6148     00D2                     u331_21:
  6149     00D2  28D8               	goto	i1l2816
  6150     00D3                     u331_20:
  6151     00D3                     i1l2814:
  6152                           
  6153                           ;Proyecto_Micros.c: 133:                     valor_mapeado0 = 25;
  6154     00D3  3019               	movlw	25
  6155     00D4  00D3               	movwf	_valor_mapeado0
  6156     00D5  3000               	movlw	0
  6157     00D6  00D4               	movwf	_valor_mapeado0+1
  6158                           
  6159                           ;Proyecto_Micros.c: 134:                 }else if (selectSERVO == 2){
  6160     00D7  2A95               	goto	i1l2928
  6161     00D8                     i1l2816:
  6162     00D8  3002               	movlw	2
  6163     00D9  0655               	xorwf	_selectSERVO,w
  6164     00DA  1D03               	btfss	3,2
  6165     00DB  28DD               	goto	u332_21
  6166     00DC  28DE               	goto	u332_20
  6167     00DD                     u332_21:
  6168     00DD  28E5               	goto	i1l2820
  6169     00DE                     u332_20:
  6170     00DE                     i1l2818:
  6171                           
  6172                           ;Proyecto_Micros.c: 135:                     valor_mapeado1 = 20;
  6173     00DE  3014               	movlw	20
  6174     00DF  1683               	bsf	3,5	;RP0=1, select bank1
  6175     00E0  1303               	bcf	3,6	;RP1=0, select bank1
  6176     00E1  00E0               	movwf	_valor_mapeado1^(0+128)
  6177     00E2  3000               	movlw	0
  6178     00E3  00E1               	movwf	(_valor_mapeado1^(0+128)+1)
  6179                           
  6180                           ;Proyecto_Micros.c: 136:                 }else if (selectSERVO == 3){
  6181     00E4  2A95               	goto	i1l2928
  6182     00E5                     i1l2820:
  6183     00E5  3003               	movlw	3
  6184     00E6  0655               	xorwf	_selectSERVO,w
  6185     00E7  1D03               	btfss	3,2
  6186     00E8  28EA               	goto	u333_21
  6187     00E9  28EB               	goto	u333_20
  6188     00EA                     u333_21:
  6189     00EA  28F2               	goto	i1l2824
  6190     00EB                     u333_20:
  6191     00EB                     i1l2822:
  6192                           
  6193                           ;Proyecto_Micros.c: 137:                     valor_mapeado2 = 20;
  6194     00EB  3014               	movlw	20
  6195     00EC  1683               	bsf	3,5	;RP0=1, select bank1
  6196     00ED  1303               	bcf	3,6	;RP1=0, select bank1
  6197     00EE  00DE               	movwf	_valor_mapeado2^(0+128)
  6198     00EF  3000               	movlw	0
  6199     00F0  00DF               	movwf	(_valor_mapeado2^(0+128)+1)
  6200                           
  6201                           ;Proyecto_Micros.c: 138:                 }else if (selectSERVO == 4){
  6202     00F1  2A95               	goto	i1l2928
  6203     00F2                     i1l2824:
  6204     00F2  3004               	movlw	4
  6205     00F3  0655               	xorwf	_selectSERVO,w
  6206     00F4  1D03               	btfss	3,2
  6207     00F5  28F7               	goto	u334_21
  6208     00F6  28F8               	goto	u334_20
  6209     00F7                     u334_21:
  6210     00F7  28FF               	goto	i1l187
  6211     00F8                     u334_20:
  6212     00F8                     i1l2826:
  6213                           
  6214                           ;Proyecto_Micros.c: 139:                     valor_mapeado3 = 25;
  6215     00F8  3019               	movlw	25
  6216     00F9  1683               	bsf	3,5	;RP0=1, select bank1
  6217     00FA  1303               	bcf	3,6	;RP1=0, select bank1
  6218     00FB  00DC               	movwf	_valor_mapeado3^(0+128)
  6219     00FC  3000               	movlw	0
  6220     00FD  00DD               	movwf	(_valor_mapeado3^(0+128)+1)
  6221     00FE  2A95               	goto	i1l2928
  6222     00FF                     i1l187:
  6223     00FF  2A95               	goto	i1l2928
  6224     0100                     i1l2828:
  6225     0100  0357               	decf	_valorDIAL,w
  6226     0101  1D03               	btfss	3,2
  6227     0102  2904               	goto	u335_21
  6228     0103  2905               	goto	u335_20
  6229     0104                     u335_21:
  6230     0104  2908               	goto	i1l2832
  6231     0105                     u335_20:
  6232     0105                     i1l2830:
  6233                           
  6234                           ;Proyecto_Micros.c: 142:                 selectSERVO = 1;
  6235     0105  01D5               	clrf	_selectSERVO
  6236     0106  0AD5               	incf	_selectSERVO,f
  6237                           
  6238                           ;Proyecto_Micros.c: 143:             }else if (valorDIAL == 2){
  6239     0107  2A95               	goto	i1l2928
  6240     0108                     i1l2832:
  6241     0108  3002               	movlw	2
  6242     0109  0657               	xorwf	_valorDIAL,w
  6243     010A  1D03               	btfss	3,2
  6244     010B  290D               	goto	u336_21
  6245     010C  290E               	goto	u336_20
  6246     010D                     u336_21:
  6247     010D  2911               	goto	i1l2836
  6248     010E                     u336_20:
  6249     010E                     i1l2834:
  6250                           
  6251                           ;Proyecto_Micros.c: 144:                 selectSERVO = 2;
  6252     010E  3002               	movlw	2
  6253     010F  00D5               	movwf	_selectSERVO
  6254                           
  6255                           ;Proyecto_Micros.c: 145:             }else if (valorDIAL == 3){
  6256     0110  2A95               	goto	i1l2928
  6257     0111                     i1l2836:
  6258     0111  3003               	movlw	3
  6259     0112  0657               	xorwf	_valorDIAL,w
  6260     0113  1D03               	btfss	3,2
  6261     0114  2916               	goto	u337_21
  6262     0115  2917               	goto	u337_20
  6263     0116                     u337_21:
  6264     0116  291A               	goto	i1l2840
  6265     0117                     u337_20:
  6266     0117                     i1l2838:
  6267                           
  6268                           ;Proyecto_Micros.c: 146:                 selectSERVO = 3;
  6269     0117  3003               	movlw	3
  6270     0118  00D5               	movwf	_selectSERVO
  6271                           
  6272                           ;Proyecto_Micros.c: 147:             }else if (valorDIAL == 4){
  6273     0119  2A95               	goto	i1l2928
  6274     011A                     i1l2840:
  6275     011A  3004               	movlw	4
  6276     011B  0657               	xorwf	_valorDIAL,w
  6277     011C  1D03               	btfss	3,2
  6278     011D  291F               	goto	u338_21
  6279     011E  2920               	goto	u338_20
  6280     011F                     u338_21:
  6281     011F  2923               	goto	i1l2844
  6282     0120                     u338_20:
  6283     0120                     i1l2842:
  6284                           
  6285                           ;Proyecto_Micros.c: 148:                 selectSERVO = 4;
  6286     0120  3004               	movlw	4
  6287     0121  00D5               	movwf	_selectSERVO
  6288                           
  6289                           ;Proyecto_Micros.c: 149:             }else if (valorDIAL == 5){
  6290     0122  2A95               	goto	i1l2928
  6291     0123                     i1l2844:
  6292     0123  3005               	movlw	5
  6293     0124  0657               	xorwf	_valorDIAL,w
  6294     0125  1D03               	btfss	3,2
  6295     0126  2928               	goto	u339_21
  6296     0127  2929               	goto	u339_20
  6297     0128                     u339_21:
  6298     0128  295A               	goto	i1l2862
  6299     0129                     u339_20:
  6300     0129                     i1l2846:
  6301                           
  6302                           ;Proyecto_Micros.c: 150:                 if (selectSERVO == 1){
  6303     0129  0355               	decf	_selectSERVO,w
  6304     012A  1D03               	btfss	3,2
  6305     012B  292D               	goto	u340_21
  6306     012C  292E               	goto	u340_20
  6307     012D                     u340_21:
  6308     012D  2933               	goto	i1l2850
  6309     012E                     u340_20:
  6310     012E                     i1l2848:
  6311                           
  6312                           ;Proyecto_Micros.c: 151:                     valor_mapeado0 = 60;
  6313     012E  303C               	movlw	60
  6314     012F  00D3               	movwf	_valor_mapeado0
  6315     0130  3000               	movlw	0
  6316     0131  00D4               	movwf	_valor_mapeado0+1
  6317                           
  6318                           ;Proyecto_Micros.c: 152:                 }else if (selectSERVO == 2){
  6319     0132  2A95               	goto	i1l2928
  6320     0133                     i1l2850:
  6321     0133  3002               	movlw	2
  6322     0134  0655               	xorwf	_selectSERVO,w
  6323     0135  1D03               	btfss	3,2
  6324     0136  2938               	goto	u341_21
  6325     0137  2939               	goto	u341_20
  6326     0138                     u341_21:
  6327     0138  2940               	goto	i1l2854
  6328     0139                     u341_20:
  6329     0139                     i1l2852:
  6330                           
  6331                           ;Proyecto_Micros.c: 153:                     valor_mapeado1 = 42;
  6332     0139  302A               	movlw	42
  6333     013A  1683               	bsf	3,5	;RP0=1, select bank1
  6334     013B  1303               	bcf	3,6	;RP1=0, select bank1
  6335     013C  00E0               	movwf	_valor_mapeado1^(0+128)
  6336     013D  3000               	movlw	0
  6337     013E  00E1               	movwf	(_valor_mapeado1^(0+128)+1)
  6338                           
  6339                           ;Proyecto_Micros.c: 154:                 }else if (selectSERVO == 3){
  6340     013F  2A95               	goto	i1l2928
  6341     0140                     i1l2854:
  6342     0140  3003               	movlw	3
  6343     0141  0655               	xorwf	_selectSERVO,w
  6344     0142  1D03               	btfss	3,2
  6345     0143  2945               	goto	u342_21
  6346     0144  2946               	goto	u342_20
  6347     0145                     u342_21:
  6348     0145  294D               	goto	i1l2858
  6349     0146                     u342_20:
  6350     0146                     i1l2856:
  6351                           
  6352                           ;Proyecto_Micros.c: 155:                     valor_mapeado2 = 80;
  6353     0146  3050               	movlw	80
  6354     0147  1683               	bsf	3,5	;RP0=1, select bank1
  6355     0148  1303               	bcf	3,6	;RP1=0, select bank1
  6356     0149  00DE               	movwf	_valor_mapeado2^(0+128)
  6357     014A  3000               	movlw	0
  6358     014B  00DF               	movwf	(_valor_mapeado2^(0+128)+1)
  6359                           
  6360                           ;Proyecto_Micros.c: 156:                 }else if (selectSERVO == 4){
  6361     014C  2A95               	goto	i1l2928
  6362     014D                     i1l2858:
  6363     014D  3004               	movlw	4
  6364     014E  0655               	xorwf	_selectSERVO,w
  6365     014F  1D03               	btfss	3,2
  6366     0150  2952               	goto	u343_21
  6367     0151  2953               	goto	u343_20
  6368     0152                     u343_21:
  6369     0152  28FF               	goto	i1l187
  6370     0153                     u343_20:
  6371     0153                     i1l2860:
  6372                           
  6373                           ;Proyecto_Micros.c: 157:                     valor_mapeado3 = 60;
  6374     0153  303C               	movlw	60
  6375     0154  1683               	bsf	3,5	;RP0=1, select bank1
  6376     0155  1303               	bcf	3,6	;RP1=0, select bank1
  6377     0156  00DC               	movwf	_valor_mapeado3^(0+128)
  6378     0157  3000               	movlw	0
  6379     0158  00DD               	movwf	(_valor_mapeado3^(0+128)+1)
  6380     0159  2A95               	goto	i1l2928
  6381     015A                     i1l2862:
  6382                           
  6383                           ;Proyecto_Micros.c: 160:                 if (selectSERVO == 1){
  6384     015A  0355               	decf	_selectSERVO,w
  6385     015B  1D03               	btfss	3,2
  6386     015C  295E               	goto	u344_21
  6387     015D  295F               	goto	u344_20
  6388     015E                     u344_21:
  6389     015E  2975               	goto	i1l2866
  6390     015F                     u344_20:
  6391     015F                     i1l2864:
  6392                           
  6393                           ;Proyecto_Micros.c: 161:                     valor_mapeado0 = map(valorDIAL,0,255,30,60)
      +                          ;
  6394     015F  01A4               	clrf	i1map@rango_min
  6395     0160  30FF               	movlw	255
  6396     0161  00A5               	movwf	i1map@rango_max
  6397     0162  301E               	movlw	30
  6398     0163  00A6               	movwf	i1map@nuevo_min
  6399     0164  303C               	movlw	60
  6400     0165  00A7               	movwf	i1map@nuevo_max
  6401     0166  0857               	movf	_valorDIAL,w
  6402     0167  160A  118A  26E9  120A  118A  	fcall	i1_map
  6403     016C  1283               	bcf	3,5	;RP0=0, select bank0
  6404     016D  1303               	bcf	3,6	;RP1=0, select bank0
  6405     016E  00AA               	movwf	??_isr
  6406     016F  01AB               	clrf	??_isr+1
  6407     0170  082A               	movf	??_isr,w
  6408     0171  00D3               	movwf	_valor_mapeado0
  6409     0172  082B               	movf	??_isr+1,w
  6410     0173  00D4               	movwf	_valor_mapeado0+1
  6411                           
  6412                           ;Proyecto_Micros.c: 162:                 }else if (selectSERVO == 2){
  6413     0174  2A95               	goto	i1l2928
  6414     0175                     i1l2866:
  6415     0175  3002               	movlw	2
  6416     0176  0655               	xorwf	_selectSERVO,w
  6417     0177  1D03               	btfss	3,2
  6418     0178  297A               	goto	u345_21
  6419     0179  297B               	goto	u345_20
  6420     017A                     u345_21:
  6421     017A  2997               	goto	i1l2870
  6422     017B                     u345_20:
  6423     017B                     i1l2868:
  6424                           
  6425                           ;Proyecto_Micros.c: 163:                       valor_mapeado1 = map(valorDIAL,0,255,30,4
      +                          3);
  6426     017B  01A4               	clrf	i1map@rango_min
  6427     017C  30FF               	movlw	255
  6428     017D  00A5               	movwf	i1map@rango_max
  6429     017E  301E               	movlw	30
  6430     017F  00A6               	movwf	i1map@nuevo_min
  6431     0180  302B               	movlw	43
  6432     0181  00A7               	movwf	i1map@nuevo_max
  6433     0182  0857               	movf	_valorDIAL,w
  6434     0183  160A  118A  26E9  120A  118A  	fcall	i1_map
  6435     0188  1283               	bcf	3,5	;RP0=0, select bank0
  6436     0189  1303               	bcf	3,6	;RP1=0, select bank0
  6437     018A  00AA               	movwf	??_isr
  6438     018B  01AB               	clrf	??_isr+1
  6439     018C  082A               	movf	??_isr,w
  6440     018D  1683               	bsf	3,5	;RP0=1, select bank1
  6441     018E  1303               	bcf	3,6	;RP1=0, select bank1
  6442     018F  00E0               	movwf	_valor_mapeado1^(0+128)
  6443     0190  1283               	bcf	3,5	;RP0=0, select bank0
  6444     0191  1303               	bcf	3,6	;RP1=0, select bank0
  6445     0192  082B               	movf	??_isr+1,w
  6446     0193  1683               	bsf	3,5	;RP0=1, select bank1
  6447     0194  1303               	bcf	3,6	;RP1=0, select bank1
  6448     0195  00E1               	movwf	(_valor_mapeado1+1)^(0+128)
  6449                           
  6450                           ;Proyecto_Micros.c: 164:                 }else if (selectSERVO == 3){
  6451     0196  2A95               	goto	i1l2928
  6452     0197                     i1l2870:
  6453     0197  3003               	movlw	3
  6454     0198  0655               	xorwf	_selectSERVO,w
  6455     0199  1D03               	btfss	3,2
  6456     019A  299C               	goto	u346_21
  6457     019B  299D               	goto	u346_20
  6458     019C                     u346_21:
  6459     019C  29B9               	goto	i1l2874
  6460     019D                     u346_20:
  6461     019D                     i1l2872:
  6462                           
  6463                           ;Proyecto_Micros.c: 165:                     valor_mapeado2 = map(valorDIAL,0,255,20,80)
      +                          ;
  6464     019D  01A4               	clrf	i1map@rango_min
  6465     019E  30FF               	movlw	255
  6466     019F  00A5               	movwf	i1map@rango_max
  6467     01A0  3014               	movlw	20
  6468     01A1  00A6               	movwf	i1map@nuevo_min
  6469     01A2  3050               	movlw	80
  6470     01A3  00A7               	movwf	i1map@nuevo_max
  6471     01A4  0857               	movf	_valorDIAL,w
  6472     01A5  160A  118A  26E9  120A  118A  	fcall	i1_map
  6473     01AA  1283               	bcf	3,5	;RP0=0, select bank0
  6474     01AB  1303               	bcf	3,6	;RP1=0, select bank0
  6475     01AC  00AA               	movwf	??_isr
  6476     01AD  01AB               	clrf	??_isr+1
  6477     01AE  082A               	movf	??_isr,w
  6478     01AF  1683               	bsf	3,5	;RP0=1, select bank1
  6479     01B0  1303               	bcf	3,6	;RP1=0, select bank1
  6480     01B1  00DE               	movwf	_valor_mapeado2^(0+128)
  6481     01B2  1283               	bcf	3,5	;RP0=0, select bank0
  6482     01B3  1303               	bcf	3,6	;RP1=0, select bank0
  6483     01B4  082B               	movf	??_isr+1,w
  6484     01B5  1683               	bsf	3,5	;RP0=1, select bank1
  6485     01B6  1303               	bcf	3,6	;RP1=0, select bank1
  6486     01B7  00DF               	movwf	(_valor_mapeado2+1)^(0+128)
  6487                           
  6488                           ;Proyecto_Micros.c: 166:                 }else if (selectSERVO == 4){
  6489     01B8  2A95               	goto	i1l2928
  6490     01B9                     i1l2874:
  6491     01B9  3004               	movlw	4
  6492     01BA  0655               	xorwf	_selectSERVO,w
  6493     01BB  1D03               	btfss	3,2
  6494     01BC  29BE               	goto	u347_21
  6495     01BD  29BF               	goto	u347_20
  6496     01BE                     u347_21:
  6497     01BE  28FF               	goto	i1l187
  6498     01BF                     u347_20:
  6499     01BF                     i1l2876:
  6500                           
  6501                           ;Proyecto_Micros.c: 167:                     valor_mapeado3 = map(valorDIAL,0,255,25,60)
      +                          ;
  6502     01BF  01A4               	clrf	i1map@rango_min
  6503     01C0  30FF               	movlw	255
  6504     01C1  00A5               	movwf	i1map@rango_max
  6505     01C2  3019               	movlw	25
  6506     01C3  00A6               	movwf	i1map@nuevo_min
  6507     01C4  303C               	movlw	60
  6508     01C5  00A7               	movwf	i1map@nuevo_max
  6509     01C6  0857               	movf	_valorDIAL,w
  6510     01C7  160A  118A  26E9  120A  118A  	fcall	i1_map
  6511     01CC  1283               	bcf	3,5	;RP0=0, select bank0
  6512     01CD  1303               	bcf	3,6	;RP1=0, select bank0
  6513     01CE  00AA               	movwf	??_isr
  6514     01CF  01AB               	clrf	??_isr+1
  6515     01D0  082A               	movf	??_isr,w
  6516     01D1  1683               	bsf	3,5	;RP0=1, select bank1
  6517     01D2  1303               	bcf	3,6	;RP1=0, select bank1
  6518     01D3  00DC               	movwf	_valor_mapeado3^(0+128)
  6519     01D4  1283               	bcf	3,5	;RP0=0, select bank0
  6520     01D5  1303               	bcf	3,6	;RP1=0, select bank0
  6521     01D6  082B               	movf	??_isr+1,w
  6522     01D7  1683               	bsf	3,5	;RP0=1, select bank1
  6523     01D8  1303               	bcf	3,6	;RP1=0, select bank1
  6524     01D9  00DD               	movwf	(_valor_mapeado3+1)^(0+128)
  6525     01DA  2A95               	goto	i1l2928
  6526     01DB                     i1l2878:
  6527     01DB  3003               	movlw	3
  6528     01DC  065B               	xorwf	_modo_funcionamiento,w
  6529     01DD  1D03               	btfss	3,2
  6530     01DE  29E0               	goto	u348_21
  6531     01DF  29E1               	goto	u348_20
  6532     01E0                     u348_21:
  6533     01E0  2A95               	goto	i1l2928
  6534     01E1                     u348_20:
  6535     01E1                     i1l2880:
  6536     01E1  035A               	decf	_activador_modo,w
  6537     01E2  1D03               	btfss	3,2
  6538     01E3  29E5               	goto	u349_21
  6539     01E4  29E6               	goto	u349_20
  6540     01E5                     u349_21:
  6541     01E5  2A95               	goto	i1l2928
  6542     01E6                     u349_20:
  6543     01E6                     i1l2882:
  6544                           
  6545                           ;Proyecto_Micros.c: 172:             valorSLIDE = RCREG;
  6546     01E6  081A               	movf	26,w	;volatile
  6547     01E7  00D6               	movwf	_valorSLIDE
  6548     01E8                     i1l2884:
  6549     01E8                     i1l2886:	
  6550                           ;Proyecto_Micros.c: 173:             _delay((unsigned long)((2)*(500000/4000000.0)));
  6551                           
  6552                           
  6553                           ;Proyecto_Micros.c: 175:             if (valorSLIDE == 0){
  6554     01E8  1283               	bcf	3,5	;RP0=0, select bank0
  6555     01E9  1303               	bcf	3,6	;RP1=0, select bank0
  6556     01EA  0856               	movf	_valorSLIDE,w
  6557     01EB  1D03               	btfss	3,2
  6558     01EC  29EE               	goto	u350_21
  6559     01ED  29EF               	goto	u350_20
  6560     01EE                     u350_21:
  6561     01EE  29F1               	goto	i1l2890
  6562     01EF                     u350_20:
  6563     01EF                     i1l2888:
  6564                           
  6565                           ;Proyecto_Micros.c: 176:                 status = 0;
  6566     01EF  01DC               	clrf	_status
  6567                           
  6568                           ;Proyecto_Micros.c: 177:             }else if (valorSLIDE == 1){
  6569     01F0  2A95               	goto	i1l2928
  6570     01F1                     i1l2890:
  6571     01F1  0356               	decf	_valorSLIDE,w
  6572     01F2  1D03               	btfss	3,2
  6573     01F3  29F5               	goto	u351_21
  6574     01F4  29F6               	goto	u351_20
  6575     01F5                     u351_21:
  6576     01F5  29F7               	goto	i1l2894
  6577     01F6                     u351_20:
  6578     01F6  2905               	goto	i1l2830
  6579     01F7                     i1l2894:
  6580     01F7  3002               	movlw	2
  6581     01F8  0656               	xorwf	_valorSLIDE,w
  6582     01F9  1D03               	btfss	3,2
  6583     01FA  29FC               	goto	u352_21
  6584     01FB  29FD               	goto	u352_20
  6585     01FC                     u352_21:
  6586     01FC  29FE               	goto	i1l2898
  6587     01FD                     u352_20:
  6588     01FD  290E               	goto	i1l2834
  6589     01FE                     i1l2898:
  6590     01FE  3003               	movlw	3
  6591     01FF  0656               	xorwf	_valorSLIDE,w
  6592     0200  1D03               	btfss	3,2
  6593     0201  2A03               	goto	u353_21
  6594     0202  2A04               	goto	u353_20
  6595     0203                     u353_21:
  6596     0203  2A05               	goto	i1l2902
  6597     0204                     u353_20:
  6598     0204  2917               	goto	i1l2838
  6599     0205                     i1l2902:
  6600     0205  3004               	movlw	4
  6601     0206  0656               	xorwf	_valorSLIDE,w
  6602     0207  1D03               	btfss	3,2
  6603     0208  2A0A               	goto	u354_21
  6604     0209  2A0B               	goto	u354_20
  6605     020A                     u354_21:
  6606     020A  2A0C               	goto	i1l2906
  6607     020B                     u354_20:
  6608     020B  2920               	goto	i1l2842
  6609     020C                     i1l2906:
  6610     020C  0A56               	incf	_valorSLIDE,w
  6611     020D  1D03               	btfss	3,2
  6612     020E  2A10               	goto	u355_21
  6613     020F  2A11               	goto	u355_20
  6614     0210                     u355_21:
  6615     0210  2A15               	goto	i1l2912
  6616     0211                     u355_20:
  6617     0211                     i1l2908:
  6618                           
  6619                           ;Proyecto_Micros.c: 186:                 status = 1;
  6620     0211  01DC               	clrf	_status
  6621     0212  0ADC               	incf	_status,f
  6622     0213                     i1l2910:
  6623                           
  6624                           ;Proyecto_Micros.c: 187:                 valorSLIDE = 0;
  6625     0213  01D6               	clrf	_valorSLIDE
  6626                           
  6627                           ;Proyecto_Micros.c: 188:             }else {
  6628     0214  2A95               	goto	i1l2928
  6629     0215                     i1l2912:
  6630                           
  6631                           ;Proyecto_Micros.c: 189:                 if (selectSERVO == 1){
  6632     0215  0355               	decf	_selectSERVO,w
  6633     0216  1D03               	btfss	3,2
  6634     0217  2A19               	goto	u356_21
  6635     0218  2A1A               	goto	u356_20
  6636     0219                     u356_21:
  6637     0219  2A30               	goto	i1l2916
  6638     021A                     u356_20:
  6639     021A                     i1l2914:
  6640                           
  6641                           ;Proyecto_Micros.c: 190:                     valor_mapeado0 = map(valorSLIDE,0,255,30,60
      +                          );
  6642     021A  01A4               	clrf	i1map@rango_min
  6643     021B  30FF               	movlw	255
  6644     021C  00A5               	movwf	i1map@rango_max
  6645     021D  301E               	movlw	30
  6646     021E  00A6               	movwf	i1map@nuevo_min
  6647     021F  303C               	movlw	60
  6648     0220  00A7               	movwf	i1map@nuevo_max
  6649     0221  0856               	movf	_valorSLIDE,w
  6650     0222  160A  118A  26E9  120A  118A  	fcall	i1_map
  6651     0227  1283               	bcf	3,5	;RP0=0, select bank0
  6652     0228  1303               	bcf	3,6	;RP1=0, select bank0
  6653     0229  00AA               	movwf	??_isr
  6654     022A  01AB               	clrf	??_isr+1
  6655     022B  082A               	movf	??_isr,w
  6656     022C  00D3               	movwf	_valor_mapeado0
  6657     022D  082B               	movf	??_isr+1,w
  6658     022E  00D4               	movwf	_valor_mapeado0+1
  6659                           
  6660                           ;Proyecto_Micros.c: 191:                 }else if (selectSERVO == 2){
  6661     022F  2A95               	goto	i1l2928
  6662     0230                     i1l2916:
  6663     0230  3002               	movlw	2
  6664     0231  0655               	xorwf	_selectSERVO,w
  6665     0232  1D03               	btfss	3,2
  6666     0233  2A35               	goto	u357_21
  6667     0234  2A36               	goto	u357_20
  6668     0235                     u357_21:
  6669     0235  2A52               	goto	i1l2920
  6670     0236                     u357_20:
  6671     0236                     i1l2918:
  6672                           
  6673                           ;Proyecto_Micros.c: 192:                     valor_mapeado1 = map(valorSLIDE,0,255,30,43
      +                          );
  6674     0236  01A4               	clrf	i1map@rango_min
  6675     0237  30FF               	movlw	255
  6676     0238  00A5               	movwf	i1map@rango_max
  6677     0239  301E               	movlw	30
  6678     023A  00A6               	movwf	i1map@nuevo_min
  6679     023B  302B               	movlw	43
  6680     023C  00A7               	movwf	i1map@nuevo_max
  6681     023D  0856               	movf	_valorSLIDE,w
  6682     023E  160A  118A  26E9  120A  118A  	fcall	i1_map
  6683     0243  1283               	bcf	3,5	;RP0=0, select bank0
  6684     0244  1303               	bcf	3,6	;RP1=0, select bank0
  6685     0245  00AA               	movwf	??_isr
  6686     0246  01AB               	clrf	??_isr+1
  6687     0247  082A               	movf	??_isr,w
  6688     0248  1683               	bsf	3,5	;RP0=1, select bank1
  6689     0249  1303               	bcf	3,6	;RP1=0, select bank1
  6690     024A  00E0               	movwf	_valor_mapeado1^(0+128)
  6691     024B  1283               	bcf	3,5	;RP0=0, select bank0
  6692     024C  1303               	bcf	3,6	;RP1=0, select bank0
  6693     024D  082B               	movf	??_isr+1,w
  6694     024E  1683               	bsf	3,5	;RP0=1, select bank1
  6695     024F  1303               	bcf	3,6	;RP1=0, select bank1
  6696     0250  00E1               	movwf	(_valor_mapeado1+1)^(0+128)
  6697                           
  6698                           ;Proyecto_Micros.c: 193:                 }else if (selectSERVO == 3){
  6699     0251  2A95               	goto	i1l2928
  6700     0252                     i1l2920:
  6701     0252  3003               	movlw	3
  6702     0253  0655               	xorwf	_selectSERVO,w
  6703     0254  1D03               	btfss	3,2
  6704     0255  2A57               	goto	u358_21
  6705     0256  2A58               	goto	u358_20
  6706     0257                     u358_21:
  6707     0257  2A74               	goto	i1l2924
  6708     0258                     u358_20:
  6709     0258                     i1l2922:
  6710                           
  6711                           ;Proyecto_Micros.c: 194:                     valor_mapeado2 = map(valorSLIDE,0,255,20,80
      +                          );
  6712     0258  01A4               	clrf	i1map@rango_min
  6713     0259  30FF               	movlw	255
  6714     025A  00A5               	movwf	i1map@rango_max
  6715     025B  3014               	movlw	20
  6716     025C  00A6               	movwf	i1map@nuevo_min
  6717     025D  3050               	movlw	80
  6718     025E  00A7               	movwf	i1map@nuevo_max
  6719     025F  0856               	movf	_valorSLIDE,w
  6720     0260  160A  118A  26E9  120A  118A  	fcall	i1_map
  6721     0265  1283               	bcf	3,5	;RP0=0, select bank0
  6722     0266  1303               	bcf	3,6	;RP1=0, select bank0
  6723     0267  00AA               	movwf	??_isr
  6724     0268  01AB               	clrf	??_isr+1
  6725     0269  082A               	movf	??_isr,w
  6726     026A  1683               	bsf	3,5	;RP0=1, select bank1
  6727     026B  1303               	bcf	3,6	;RP1=0, select bank1
  6728     026C  00DE               	movwf	_valor_mapeado2^(0+128)
  6729     026D  1283               	bcf	3,5	;RP0=0, select bank0
  6730     026E  1303               	bcf	3,6	;RP1=0, select bank0
  6731     026F  082B               	movf	??_isr+1,w
  6732     0270  1683               	bsf	3,5	;RP0=1, select bank1
  6733     0271  1303               	bcf	3,6	;RP1=0, select bank1
  6734     0272  00DF               	movwf	(_valor_mapeado2+1)^(0+128)
  6735                           
  6736                           ;Proyecto_Micros.c: 195:                 }else if (selectSERVO == 4){
  6737     0273  2A95               	goto	i1l2928
  6738     0274                     i1l2924:
  6739     0274  3004               	movlw	4
  6740     0275  0655               	xorwf	_selectSERVO,w
  6741     0276  1D03               	btfss	3,2
  6742     0277  2A79               	goto	u359_21
  6743     0278  2A7A               	goto	u359_20
  6744     0279                     u359_21:
  6745     0279  28FF               	goto	i1l187
  6746     027A                     u359_20:
  6747     027A                     i1l2926:
  6748                           
  6749                           ;Proyecto_Micros.c: 196:                     valor_mapeado3 = map(valorSLIDE,0,255,25,60
      +                          );
  6750     027A  01A4               	clrf	i1map@rango_min
  6751     027B  30FF               	movlw	255
  6752     027C  00A5               	movwf	i1map@rango_max
  6753     027D  3019               	movlw	25
  6754     027E  00A6               	movwf	i1map@nuevo_min
  6755     027F  303C               	movlw	60
  6756     0280  00A7               	movwf	i1map@nuevo_max
  6757     0281  0856               	movf	_valorSLIDE,w
  6758     0282  160A  118A  26E9  120A  118A  	fcall	i1_map
  6759     0287  1283               	bcf	3,5	;RP0=0, select bank0
  6760     0288  1303               	bcf	3,6	;RP1=0, select bank0
  6761     0289  00AA               	movwf	??_isr
  6762     028A  01AB               	clrf	??_isr+1
  6763     028B  082A               	movf	??_isr,w
  6764     028C  1683               	bsf	3,5	;RP0=1, select bank1
  6765     028D  1303               	bcf	3,6	;RP1=0, select bank1
  6766     028E  00DC               	movwf	_valor_mapeado3^(0+128)
  6767     028F  1283               	bcf	3,5	;RP0=0, select bank0
  6768     0290  1303               	bcf	3,6	;RP1=0, select bank0
  6769     0291  082B               	movf	??_isr+1,w
  6770     0292  1683               	bsf	3,5	;RP0=1, select bank1
  6771     0293  1303               	bcf	3,6	;RP1=0, select bank1
  6772     0294  00DD               	movwf	(_valor_mapeado3+1)^(0+128)
  6773     0295                     i1l2928:
  6774                           
  6775                           ;Proyecto_Micros.c: 200:         PIR1bits.RCIF = 0;
  6776     0295  1283               	bcf	3,5	;RP0=0, select bank0
  6777     0296  128C               	bcf	12,5	;volatile
  6778     0297                     i1l2930:
  6779                           
  6780                           ;Proyecto_Micros.c: 201:         PORTD = valorSLIDE;
  6781     0297  0856               	movf	_valorSLIDE,w
  6782     0298  0088               	movwf	8	;volatile
  6783     0299                     i1l2932:
  6784                           
  6785                           ;Proyecto_Micros.c: 213:     if (RBIF) {
  6786     0299  1C0B               	btfss	11,0	;volatile
  6787     029A  2A9C               	goto	u360_21
  6788     029B  2A9D               	goto	u360_20
  6789     029C                     u360_21:
  6790     029C  2BB7               	goto	i1l235
  6791     029D                     u360_20:
  6792     029D                     i1l2934:
  6793                           
  6794                           ;Proyecto_Micros.c: 215:         if (RB0 == 0) {
  6795     029D  1806               	btfsc	6,0	;volatile
  6796     029E  2AA0               	goto	u361_21
  6797     029F  2AA1               	goto	u361_20
  6798     02A0                     u361_21:
  6799     02A0  2AAC               	goto	i1l2940
  6800     02A1                     u361_20:
  6801     02A1                     i1l2936:
  6802                           
  6803                           ;Proyecto_Micros.c: 216:             modo_funcionamiento ++;
  6804     02A1  3001               	movlw	1
  6805     02A2  00AA               	movwf	??_isr
  6806     02A3  082A               	movf	??_isr,w
  6807     02A4  07DB               	addwf	_modo_funcionamiento,f
  6808                           
  6809                           ;Proyecto_Micros.c: 217:             if (modo_funcionamiento == 4){
  6810     02A5  3004               	movlw	4
  6811     02A6  065B               	xorwf	_modo_funcionamiento,w
  6812     02A7  1D03               	btfss	3,2
  6813     02A8  2AAA               	goto	u362_21
  6814     02A9  2AAB               	goto	u362_20
  6815     02AA                     u362_21:
  6816     02AA  2AAC               	goto	i1l2940
  6817     02AB                     u362_20:
  6818     02AB                     i1l2938:
  6819                           
  6820                           ;Proyecto_Micros.c: 218:                 modo_funcionamiento = 0;
  6821     02AB  01DB               	clrf	_modo_funcionamiento
  6822     02AC                     i1l2940:
  6823                           
  6824                           ;Proyecto_Micros.c: 221:         if (RB1 == 0) {
  6825     02AC  1886               	btfsc	6,1	;volatile
  6826     02AD  2AAF               	goto	u363_21
  6827     02AE  2AB0               	goto	u363_20
  6828     02AF                     u363_21:
  6829     02AF  2AB3               	goto	i1l2944
  6830     02B0                     u363_20:
  6831     02B0                     i1l2942:
  6832                           
  6833                           ;Proyecto_Micros.c: 222:             activador_modo = activador_modo ^ 1;
  6834     02B0  085A               	movf	_activador_modo,w
  6835     02B1  3A01               	xorlw	1
  6836     02B2  00DA               	movwf	_activador_modo
  6837     02B3                     i1l2944:
  6838                           
  6839                           ;Proyecto_Micros.c: 224:         if (RB2 == 0) {
  6840     02B3  1906               	btfsc	6,2	;volatile
  6841     02B4  2AB6               	goto	u364_21
  6842     02B5  2AB7               	goto	u364_20
  6843     02B6                     u364_21:
  6844     02B6  2AE4               	goto	i1l2960
  6845     02B7                     u364_20:
  6846     02B7                     i1l2946:
  6847                           
  6848                           ;Proyecto_Micros.c: 225:             if (modo_funcionamiento == 0 && activador_modo == 1
      +                          ){
  6849     02B7  085B               	movf	_modo_funcionamiento,w
  6850     02B8  1D03               	btfss	3,2
  6851     02B9  2ABB               	goto	u365_21
  6852     02BA  2ABC               	goto	u365_20
  6853     02BB                     u365_21:
  6854     02BB  2AE4               	goto	i1l2960
  6855     02BC                     u365_20:
  6856     02BC                     i1l2948:
  6857     02BC  035A               	decf	_activador_modo,w
  6858     02BD  1D03               	btfss	3,2
  6859     02BE  2AC0               	goto	u366_21
  6860     02BF  2AC1               	goto	u366_20
  6861     02C0                     u366_21:
  6862     02C0  2AE4               	goto	i1l2960
  6863     02C1                     u366_20:
  6864     02C1                     i1l2950:
  6865                           
  6866                           ;Proyecto_Micros.c: 226:                 bandera1 = bandera1 ^ 1;
  6867     02C1  0859               	movf	_bandera1,w
  6868     02C2  3A01               	xorlw	1
  6869     02C3  00D9               	movwf	_bandera1
  6870     02C4                     i1l2952:
  6871                           
  6872                           ;Proyecto_Micros.c: 227:                 if (bandera1 == 0){
  6873     02C4  0859               	movf	_bandera1,w
  6874     02C5  1D03               	btfss	3,2
  6875     02C6  2AC8               	goto	u367_21
  6876     02C7  2AC9               	goto	u367_20
  6877     02C8                     u367_21:
  6878     02C8  2AD4               	goto	i1l2956
  6879     02C9                     u367_20:
  6880     02C9                     i1l2954:
  6881                           
  6882                           ;Proyecto_Micros.c: 228:                     valor_mapeado0 = 25;
  6883     02C9  3019               	movlw	25
  6884     02CA  00D3               	movwf	_valor_mapeado0
  6885     02CB  3000               	movlw	0
  6886     02CC  00D4               	movwf	_valor_mapeado0+1
  6887                           
  6888                           ;Proyecto_Micros.c: 229:                     valor_mapeado3 = 25;
  6889     02CD  3019               	movlw	25
  6890     02CE  1683               	bsf	3,5	;RP0=1, select bank1
  6891     02CF  1303               	bcf	3,6	;RP1=0, select bank1
  6892     02D0  00DC               	movwf	_valor_mapeado3^(0+128)
  6893     02D1  3000               	movlw	0
  6894     02D2  00DD               	movwf	(_valor_mapeado3^(0+128)+1)
  6895                           
  6896                           ;Proyecto_Micros.c: 230:                 } else if (bandera1 == 1){
  6897     02D3  2AE4               	goto	i1l2960
  6898     02D4                     i1l2956:
  6899     02D4  0359               	decf	_bandera1,w
  6900     02D5  1D03               	btfss	3,2
  6901     02D6  2AD8               	goto	u368_21
  6902     02D7  2AD9               	goto	u368_20
  6903     02D8                     u368_21:
  6904     02D8  2AE4               	goto	i1l240
  6905     02D9                     u368_20:
  6906     02D9                     i1l2958:
  6907                           
  6908                           ;Proyecto_Micros.c: 231:                     valor_mapeado0 = 60;
  6909     02D9  303C               	movlw	60
  6910     02DA  00D3               	movwf	_valor_mapeado0
  6911     02DB  3000               	movlw	0
  6912     02DC  00D4               	movwf	_valor_mapeado0+1
  6913                           
  6914                           ;Proyecto_Micros.c: 232:                     valor_mapeado3 = 60;
  6915     02DD  303C               	movlw	60
  6916     02DE  1683               	bsf	3,5	;RP0=1, select bank1
  6917     02DF  1303               	bcf	3,6	;RP1=0, select bank1
  6918     02E0  00DC               	movwf	_valor_mapeado3^(0+128)
  6919     02E1  3000               	movlw	0
  6920     02E2  00DD               	movwf	(_valor_mapeado3^(0+128)+1)
  6921     02E3  2AE4               	goto	i1l2960
  6922     02E4                     i1l240:	
  6923                           ;Proyecto_Micros.c: 234:             }
  6924                           
  6925     02E4                     i1l2960:
  6926                           
  6927                           ;Proyecto_Micros.c: 236:         if (RB3 == 0) {
  6928     02E4  1283               	bcf	3,5	;RP0=0, select bank0
  6929     02E5  1986               	btfsc	6,3	;volatile
  6930     02E6  2AE8               	goto	u369_21
  6931     02E7  2AE9               	goto	u369_20
  6932     02E8                     u369_21:
  6933     02E8  2B16               	goto	i1l2976
  6934     02E9                     u369_20:
  6935     02E9                     i1l2962:
  6936                           
  6937                           ;Proyecto_Micros.c: 237:             if (modo_funcionamiento == 0 && activador_modo == 1
      +                          ){
  6938     02E9  085B               	movf	_modo_funcionamiento,w
  6939     02EA  1D03               	btfss	3,2
  6940     02EB  2AED               	goto	u370_21
  6941     02EC  2AEE               	goto	u370_20
  6942     02ED                     u370_21:
  6943     02ED  2B16               	goto	i1l2976
  6944     02EE                     u370_20:
  6945     02EE                     i1l2964:
  6946     02EE  035A               	decf	_activador_modo,w
  6947     02EF  1D03               	btfss	3,2
  6948     02F0  2AF2               	goto	u371_21
  6949     02F1  2AF3               	goto	u371_20
  6950     02F2                     u371_21:
  6951     02F2  2B16               	goto	i1l2976
  6952     02F3                     u371_20:
  6953     02F3                     i1l2966:
  6954                           
  6955                           ;Proyecto_Micros.c: 238:                 bandera2 = bandera2 ^ 1;
  6956     02F3  0858               	movf	_bandera2,w
  6957     02F4  3A01               	xorlw	1
  6958     02F5  00D8               	movwf	_bandera2
  6959     02F6                     i1l2968:
  6960                           
  6961                           ;Proyecto_Micros.c: 239:                 if (bandera2 == 0){
  6962     02F6  0858               	movf	_bandera2,w
  6963     02F7  1D03               	btfss	3,2
  6964     02F8  2AFA               	goto	u372_21
  6965     02F9  2AFB               	goto	u372_20
  6966     02FA                     u372_21:
  6967     02FA  2B06               	goto	i1l2972
  6968     02FB                     u372_20:
  6969     02FB                     i1l2970:
  6970                           
  6971                           ;Proyecto_Micros.c: 240:                     valor_mapeado1 = 20;
  6972     02FB  3014               	movlw	20
  6973     02FC  1683               	bsf	3,5	;RP0=1, select bank1
  6974     02FD  1303               	bcf	3,6	;RP1=0, select bank1
  6975     02FE  00E0               	movwf	_valor_mapeado1^(0+128)
  6976     02FF  3000               	movlw	0
  6977     0300  00E1               	movwf	(_valor_mapeado1^(0+128)+1)
  6978                           
  6979                           ;Proyecto_Micros.c: 241:                     valor_mapeado2 = 20;
  6980     0301  3014               	movlw	20
  6981     0302  00DE               	movwf	_valor_mapeado2^(0+128)
  6982     0303  3000               	movlw	0
  6983     0304  00DF               	movwf	(_valor_mapeado2^(0+128)+1)
  6984                           
  6985                           ;Proyecto_Micros.c: 242:                 } else if (bandera2 == 1){
  6986     0305  2B16               	goto	i1l2976
  6987     0306                     i1l2972:
  6988     0306  0358               	decf	_bandera2,w
  6989     0307  1D03               	btfss	3,2
  6990     0308  2B0A               	goto	u373_21
  6991     0309  2B0B               	goto	u373_20
  6992     030A                     u373_21:
  6993     030A  2B16               	goto	i1l245
  6994     030B                     u373_20:
  6995     030B                     i1l2974:
  6996                           
  6997                           ;Proyecto_Micros.c: 243:                     valor_mapeado1 = 42;
  6998     030B  302A               	movlw	42
  6999     030C  1683               	bsf	3,5	;RP0=1, select bank1
  7000     030D  1303               	bcf	3,6	;RP1=0, select bank1
  7001     030E  00E0               	movwf	_valor_mapeado1^(0+128)
  7002     030F  3000               	movlw	0
  7003     0310  00E1               	movwf	(_valor_mapeado1^(0+128)+1)
  7004                           
  7005                           ;Proyecto_Micros.c: 244:                     valor_mapeado2 = 80;
  7006     0311  3050               	movlw	80
  7007     0312  00DE               	movwf	_valor_mapeado2^(0+128)
  7008     0313  3000               	movlw	0
  7009     0314  00DF               	movwf	(_valor_mapeado2^(0+128)+1)
  7010     0315  2B16               	goto	i1l2976
  7011     0316                     i1l245:	
  7012                           ;Proyecto_Micros.c: 246:             }
  7013                           
  7014     0316                     i1l2976:
  7015                           
  7016                           ;Proyecto_Micros.c: 248:         if (RB4 == 0) {
  7017     0316  1283               	bcf	3,5	;RP0=0, select bank0
  7018     0317  1A06               	btfsc	6,4	;volatile
  7019     0318  2B1A               	goto	u374_21
  7020     0319  2B1B               	goto	u374_20
  7021     031A                     u374_21:
  7022     031A  2BB7               	goto	i1l235
  7023     031B                     u374_20:
  7024     031B                     i1l2978:
  7025                           
  7026                           ;Proyecto_Micros.c: 249:             if(modo_funcionamiento == 0 && activador_modo == 1)
      +                          {
  7027     031B  085B               	movf	_modo_funcionamiento,w
  7028     031C  1D03               	btfss	3,2
  7029     031D  2B1F               	goto	u375_21
  7030     031E  2B20               	goto	u375_20
  7031     031F                     u375_21:
  7032     031F  2B74               	goto	i1l2984
  7033     0320                     u375_20:
  7034     0320                     i1l2980:
  7035     0320  035A               	decf	_activador_modo,w
  7036     0321  1D03               	btfss	3,2
  7037     0322  2B24               	goto	u376_21
  7038     0323  2B25               	goto	u376_20
  7039     0324                     u376_21:
  7040     0324  2B74               	goto	i1l2984
  7041     0325                     u376_20:
  7042     0325                     i1l2982:
  7043                           
  7044                           ;Proyecto_Micros.c: 251:                 valor_mapeado0 = read_EEPROM(address0);
  7045     0325  0860               	movf	_address0,w
  7046     0326  160A  118A  260F  120A  118A  	fcall	i1_read_EEPROM
  7047     032B  1283               	bcf	3,5	;RP0=0, select bank0
  7048     032C  1303               	bcf	3,6	;RP1=0, select bank0
  7049     032D  00AA               	movwf	??_isr
  7050     032E  01AB               	clrf	??_isr+1
  7051     032F  082A               	movf	??_isr,w
  7052     0330  00D3               	movwf	_valor_mapeado0
  7053     0331  082B               	movf	??_isr+1,w
  7054     0332  00D4               	movwf	_valor_mapeado0+1
  7055                           
  7056                           ;Proyecto_Micros.c: 252:                 valor_mapeado1 = read_EEPROM(address1);
  7057     0333  085F               	movf	_address1,w
  7058     0334  160A  118A  260F  120A  118A  	fcall	i1_read_EEPROM
  7059     0339  1283               	bcf	3,5	;RP0=0, select bank0
  7060     033A  1303               	bcf	3,6	;RP1=0, select bank0
  7061     033B  00AA               	movwf	??_isr
  7062     033C  01AB               	clrf	??_isr+1
  7063     033D  082A               	movf	??_isr,w
  7064     033E  1683               	bsf	3,5	;RP0=1, select bank1
  7065     033F  1303               	bcf	3,6	;RP1=0, select bank1
  7066     0340  00E0               	movwf	_valor_mapeado1^(0+128)
  7067     0341  1283               	bcf	3,5	;RP0=0, select bank0
  7068     0342  1303               	bcf	3,6	;RP1=0, select bank0
  7069     0343  082B               	movf	??_isr+1,w
  7070     0344  1683               	bsf	3,5	;RP0=1, select bank1
  7071     0345  1303               	bcf	3,6	;RP1=0, select bank1
  7072     0346  00E1               	movwf	(_valor_mapeado1+1)^(0+128)
  7073                           
  7074                           ;Proyecto_Micros.c: 253:                 valor_mapeado2 = read_EEPROM(address2);
  7075     0347  1283               	bcf	3,5	;RP0=0, select bank0
  7076     0348  1303               	bcf	3,6	;RP1=0, select bank0
  7077     0349  085E               	movf	_address2,w
  7078     034A  160A  118A  260F  120A  118A  	fcall	i1_read_EEPROM
  7079     034F  1283               	bcf	3,5	;RP0=0, select bank0
  7080     0350  1303               	bcf	3,6	;RP1=0, select bank0
  7081     0351  00AA               	movwf	??_isr
  7082     0352  01AB               	clrf	??_isr+1
  7083     0353  082A               	movf	??_isr,w
  7084     0354  1683               	bsf	3,5	;RP0=1, select bank1
  7085     0355  1303               	bcf	3,6	;RP1=0, select bank1
  7086     0356  00DE               	movwf	_valor_mapeado2^(0+128)
  7087     0357  1283               	bcf	3,5	;RP0=0, select bank0
  7088     0358  1303               	bcf	3,6	;RP1=0, select bank0
  7089     0359  082B               	movf	??_isr+1,w
  7090     035A  1683               	bsf	3,5	;RP0=1, select bank1
  7091     035B  1303               	bcf	3,6	;RP1=0, select bank1
  7092     035C  00DF               	movwf	(_valor_mapeado2+1)^(0+128)
  7093                           
  7094                           ;Proyecto_Micros.c: 254:                 valor_mapeado3 = read_EEPROM(address3);
  7095     035D  1283               	bcf	3,5	;RP0=0, select bank0
  7096     035E  1303               	bcf	3,6	;RP1=0, select bank0
  7097     035F  085D               	movf	_address3,w
  7098     0360  160A  118A  260F  120A  118A  	fcall	i1_read_EEPROM
  7099     0365  1283               	bcf	3,5	;RP0=0, select bank0
  7100     0366  1303               	bcf	3,6	;RP1=0, select bank0
  7101     0367  00AA               	movwf	??_isr
  7102     0368  01AB               	clrf	??_isr+1
  7103     0369  082A               	movf	??_isr,w
  7104     036A  1683               	bsf	3,5	;RP0=1, select bank1
  7105     036B  1303               	bcf	3,6	;RP1=0, select bank1
  7106     036C  00DC               	movwf	_valor_mapeado3^(0+128)
  7107     036D  1283               	bcf	3,5	;RP0=0, select bank0
  7108     036E  1303               	bcf	3,6	;RP1=0, select bank0
  7109     036F  082B               	movf	??_isr+1,w
  7110     0370  1683               	bsf	3,5	;RP0=1, select bank1
  7111     0371  1303               	bcf	3,6	;RP1=0, select bank1
  7112     0372  00DD               	movwf	(_valor_mapeado3+1)^(0+128)
  7113                           
  7114                           ;Proyecto_Micros.c: 257:             } else if(modo_funcionamiento == 1 && activador_mod
      +                          o == 1){
  7115     0373  2BB7               	goto	i1l235
  7116     0374                     i1l2984:
  7117     0374  035B               	decf	_modo_funcionamiento,w
  7118     0375  1D03               	btfss	3,2
  7119     0376  2B78               	goto	u377_21
  7120     0377  2B79               	goto	u377_20
  7121     0378                     u377_21:
  7122     0378  2BAB               	goto	i1l2990
  7123     0379                     u377_20:
  7124     0379                     i1l2986:
  7125     0379  035A               	decf	_activador_modo,w
  7126     037A  1D03               	btfss	3,2
  7127     037B  2B7D               	goto	u378_21
  7128     037C  2B7E               	goto	u378_20
  7129     037D                     u378_21:
  7130     037D  2BAB               	goto	i1l2990
  7131     037E                     u378_20:
  7132     037E                     i1l2988:
  7133                           
  7134                           ;Proyecto_Micros.c: 259:                 write_EEPROM(address0, valor_mapeado0);
  7135     037E  0853               	movf	_valor_mapeado0,w
  7136     037F  00F0               	movwf	write_EEPROM@data
  7137     0380  0860               	movf	_address0,w
  7138     0381  160A  118A  263E  120A  118A  	fcall	_write_EEPROM
  7139                           
  7140                           ;Proyecto_Micros.c: 260:                 write_EEPROM(address1, valor_mapeado1);
  7141     0386  1683               	bsf	3,5	;RP0=1, select bank1
  7142     0387  1303               	bcf	3,6	;RP1=0, select bank1
  7143     0388  0860               	movf	_valor_mapeado1^(0+128),w
  7144     0389  00F0               	movwf	write_EEPROM@data
  7145     038A  1283               	bcf	3,5	;RP0=0, select bank0
  7146     038B  1303               	bcf	3,6	;RP1=0, select bank0
  7147     038C  085F               	movf	_address1,w
  7148     038D  160A  118A  263E  120A  118A  	fcall	_write_EEPROM
  7149                           
  7150                           ;Proyecto_Micros.c: 261:                 write_EEPROM(address2, valor_mapeado2);
  7151     0392  1683               	bsf	3,5	;RP0=1, select bank1
  7152     0393  1303               	bcf	3,6	;RP1=0, select bank1
  7153     0394  085E               	movf	_valor_mapeado2^(0+128),w
  7154     0395  00F0               	movwf	write_EEPROM@data
  7155     0396  1283               	bcf	3,5	;RP0=0, select bank0
  7156     0397  1303               	bcf	3,6	;RP1=0, select bank0
  7157     0398  085E               	movf	_address2,w
  7158     0399  160A  118A  263E  120A  118A  	fcall	_write_EEPROM
  7159                           
  7160                           ;Proyecto_Micros.c: 262:                 write_EEPROM(address3, valor_mapeado3);
  7161     039E  1683               	bsf	3,5	;RP0=1, select bank1
  7162     039F  1303               	bcf	3,6	;RP1=0, select bank1
  7163     03A0  085C               	movf	_valor_mapeado3^(0+128),w
  7164     03A1  00F0               	movwf	write_EEPROM@data
  7165     03A2  1283               	bcf	3,5	;RP0=0, select bank0
  7166     03A3  1303               	bcf	3,6	;RP1=0, select bank0
  7167     03A4  085D               	movf	_address3,w
  7168     03A5  160A  118A  263E  120A  118A  	fcall	_write_EEPROM
  7169                           
  7170                           ;Proyecto_Micros.c: 264:             } else if(modo_funcionamiento == 2 && activador_mod
      +                          o == 1){
  7171     03AA  2BB7               	goto	i1l235
  7172     03AB                     i1l2990:
  7173     03AB  3002               	movlw	2
  7174     03AC  065B               	xorwf	_modo_funcionamiento,w
  7175     03AD  1D03               	btfss	3,2
  7176     03AE  2BB0               	goto	u379_21
  7177     03AF  2BB1               	goto	u379_20
  7178     03B0                     u379_21:
  7179     03B0  2BB7               	goto	i1l2996
  7180     03B1                     u379_20:
  7181     03B1                     i1l2992:
  7182     03B1  035A               	decf	_activador_modo,w
  7183     03B2  1D03               	btfss	3,2
  7184     03B3  2BB5               	goto	u380_21
  7185     03B4  2BB6               	goto	u380_20
  7186     03B5                     u380_21:
  7187     03B5  2BB7               	goto	i1l2996
  7188     03B6                     u380_20:
  7189     03B6  2BB7               	goto	i1l235
  7190     03B7                     i1l2996:
  7191     03B7                     i1l235:	
  7192                           ;Proyecto_Micros.c: 270:     }
  7193                           
  7194                           
  7195                           ;Proyecto_Micros.c: 272:         RBIF = 0;
  7196     03B7  100B               	bcf	11,0	;volatile
  7197     03B8                     i1l3000:
  7198                           
  7199                           ;Proyecto_Micros.c: 273:          _delay((unsigned long)((2)*(500000/4000.0)));
  7200     03B8  3052               	movlw	82
  7201     03B9  1283               	bcf	3,5	;RP0=0, select bank0
  7202     03BA  1303               	bcf	3,6	;RP1=0, select bank0
  7203     03BB  00AA               	movwf	??_isr
  7204     03BC                     u455_27:
  7205     03BC  0BAA               	decfsz	??_isr,f
  7206     03BD  2BBC               	goto	u455_27
  7207     03BE  0000               	nop
  7208     03BF                     i1l257:
  7209     03BF  1283               	bcf	3,5	;RP0=0, select bank0
  7210     03C0  1303               	bcf	3,6	;RP1=0, select bank0
  7211     03C1  082D               	movf	??_isr+3,w
  7212     03C2  008A               	movwf	10
  7213     03C3  0E2C               	swapf	??_isr+2,w
  7214     03C4  0083               	movwf	3
  7215     03C5  0EFE               	swapf	btemp,f
  7216     03C6  0E7E               	swapf	btemp,w
  7217     03C7  0009               	retfie
  7218     03C8                     __end_of_isr:
  7219                           
  7220                           	psect	intentry
  7221     0004                     __pintentry:	
  7222                           ;incstack = 0
  7223                           ; Regs used in _isr: [wreg+status,2+status,0+pclath+cstack]
  7224                           
  7225     0004                     interrupt_function:
  7226     007E                     saved_w	set	btemp
  7227     0004  00FE               	movwf	btemp
  7228     0005  0E03               	swapf	3,w
  7229     0006  1283               	bcf	3,5	;RP0=0, select bank0
  7230     0007  1303               	bcf	3,6	;RP1=0, select bank0
  7231     0008  00AC               	movwf	??_isr+2
  7232     0009  080A               	movf	10,w
  7233     000A  00AD               	movwf	??_isr+3
  7234     000B  120A  118A  283F   	ljmp	_isr
  7235                           
  7236                           	psect	text19
  7237     160F                     __ptext19:	
  7238 ;; *************** function i1_read_EEPROM *****************
  7239 ;; Defined at:
  7240 ;;		line 599 in file "Proyecto_Micros.c"
  7241 ;; Parameters:    Size  Location     Type
  7242 ;;  address         1    wreg     unsigned char 
  7243 ;; Auto vars:     Size  Location     Type
  7244 ;;  address         1    0[COMMON] unsigned char 
  7245 ;; Return value:  Size  Location     Type
  7246 ;;                  1    wreg      unsigned char 
  7247 ;; Registers used:
  7248 ;;		wreg
  7249 ;; Tracked objects:
  7250 ;;		On entry : 0/0
  7251 ;;		On exit  : 0/0
  7252 ;;		Unchanged: 0/0
  7253 ;; Data sizes:     COMMON   BANK0   BANK1   BANK3   BANK2
  7254 ;;      Params:         0       0       0       0       0
  7255 ;;      Locals:         1       0       0       0       0
  7256 ;;      Temps:          0       0       0       0       0
  7257 ;;      Totals:         1       0       0       0       0
  7258 ;;Total ram usage:        1 bytes
  7259 ;; Hardware stack levels used: 1
  7260 ;; This function calls:
  7261 ;;		Nothing
  7262 ;; This function is called by:
  7263 ;;		_isr
  7264 ;; This function uses a non-reentrant model
  7265 ;;
  7266                           
  7267     160F                     i1_read_EEPROM:	
  7268                           ;psect for function i1_read_EEPROM
  7269                           
  7270                           
  7271                           ;incstack = 0
  7272                           ; Regs used in i1_read_EEPROM: [wreg]
  7273                           ;i1read_EEPROM@address stored from wreg
  7274     160F  00F0               	movwf	i1read_EEPROM@address
  7275     1610                     i1l2760:
  7276     1610                     i1l321:	
  7277                           ;Proyecto_Micros.c: 600:     while (WR||RD){;}
  7278                           
  7279     1610  1683               	bsf	3,5	;RP0=1, select bank3
  7280     1611  1703               	bsf	3,6	;RP1=1, select bank3
  7281     1612  188C               	btfsc	12,1	;volsfr
  7282     1613  2E15               	goto	u320_21
  7283     1614  2E16               	goto	u320_20
  7284     1615                     u320_21:
  7285     1615  2E10               	goto	i1l321
  7286     1616                     u320_20:
  7287     1616                     i1l2762:
  7288     1616  180C               	btfsc	12,0	;volsfr
  7289     1617  2E19               	goto	u321_21
  7290     1618  2E1A               	goto	u321_20
  7291     1619                     u321_21:
  7292     1619  2E10               	goto	i1l321
  7293     161A                     u321_20:
  7294     161A                     i1l2764:
  7295                           
  7296                           ;Proyecto_Micros.c: 601:     EEADR = address ;
  7297     161A  0870               	movf	i1read_EEPROM@address,w
  7298     161B  1283               	bcf	3,5	;RP0=0, select bank2
  7299     161C  1703               	bsf	3,6	;RP1=1, select bank2
  7300     161D  008D               	movwf	13	;volatile
  7301     161E                     i1l2766:
  7302                           
  7303                           ;Proyecto_Micros.c: 602:     EECON1bits.EEPGD = 0;
  7304     161E  1683               	bsf	3,5	;RP0=1, select bank3
  7305     161F  1703               	bsf	3,6	;RP1=1, select bank3
  7306     1620  138C               	bcf	12,7	;volsfr
  7307     1621                     i1l2768:
  7308                           
  7309                           ;Proyecto_Micros.c: 603:     EECON1bits.RD = 1;
  7310     1621  140C               	bsf	12,0	;volsfr
  7311                           
  7312                           ;Proyecto_Micros.c: 604:     return EEDAT;
  7313     1622  1283               	bcf	3,5	;RP0=0, select bank2
  7314     1623  1703               	bsf	3,6	;RP1=1, select bank2
  7315     1624  080C               	movf	12,w	;volatile
  7316     1625                     i1l324:
  7317     1625  0008               	return
  7318     1626                     __end_ofi1_read_EEPROM:
  7319                           
  7320                           	psect	text20
  7321     16E9                     __ptext20:	
  7322 ;; *************** function i1_map *****************
  7323 ;; Defined at:
  7324 ;;		line 574 in file "Proyecto_Micros.c"
  7325 ;; Parameters:    Size  Location     Type
  7326 ;;  valor           1    wreg     unsigned char 
  7327 ;;  rango_min       1    4[BANK0 ] unsigned char 
  7328 ;;  rango_max       1    5[BANK0 ] unsigned char 
  7329 ;;  nuevo_min       1    6[BANK0 ] unsigned char 
  7330 ;;  nuevo_max       1    7[BANK0 ] unsigned char 
  7331 ;; Auto vars:     Size  Location     Type
  7332 ;;  valor           1    8[BANK0 ] unsigned char 
  7333 ;;  nuevo_valor     1    9[BANK0 ] unsigned char 
  7334 ;; Return value:  Size  Location     Type
  7335 ;;                  1    wreg      unsigned char 
  7336 ;; Registers used:
  7337 ;;		wreg, status,2, status,0, pclath, cstack
  7338 ;; Tracked objects:
  7339 ;;		On entry : 0/0
  7340 ;;		On exit  : 0/0
  7341 ;;		Unchanged: 0/0
  7342 ;; Data sizes:     COMMON   BANK0   BANK1   BANK3   BANK2
  7343 ;;      Params:         0       4       0       0       0
  7344 ;;      Locals:         0       2       0       0       0
  7345 ;;      Temps:          2       0       0       0       0
  7346 ;;      Totals:         2       6       0       0       0
  7347 ;;Total ram usage:        8 bytes
  7348 ;; Hardware stack levels used: 1
  7349 ;; Hardware stack levels required when called: 1
  7350 ;; This function calls:
  7351 ;;		i1___awdiv
  7352 ;;		i1___wmul
  7353 ;; This function is called by:
  7354 ;;		_isr
  7355 ;; This function uses a non-reentrant model
  7356 ;;
  7357                           
  7358     16E9                     i1_map:	
  7359                           ;psect for function i1_map
  7360                           
  7361                           
  7362                           ;incstack = 0
  7363                           ; Regs used in i1_map: [wreg+status,2+status,0+pclath+cstack]
  7364                           ;i1map@valor stored from wreg
  7365     16E9  1283               	bcf	3,5	;RP0=0, select bank0
  7366     16EA  1303               	bcf	3,6	;RP1=0, select bank0
  7367     16EB  00A8               	movwf	i1map@valor
  7368     16EC                     i1l2754:
  7369                           
  7370                           ;Proyecto_Micros.c: 575:     uint8_t nuevo_valor = nuevo_min + (valor - rango_min)*(nuev
      +                          o_max - nuevo_min)/(rango_max - rango_min);
  7371     16EC  0824               	movf	i1map@rango_min,w
  7372     16ED  0225               	subwf	i1map@rango_max,w
  7373     16EE  00F6               	movwf	i1___awdiv@divisor
  7374     16EF  01F7               	clrf	i1___awdiv@divisor+1
  7375     16F0  1C03               	skipc
  7376     16F1  03F7               	decf	i1___awdiv@divisor+1,f
  7377     16F2  0824               	movf	i1map@rango_min,w
  7378     16F3  0228               	subwf	i1map@valor,w
  7379     16F4  00F0               	movwf	i1___wmul@multiplier
  7380     16F5  01F1               	clrf	i1___wmul@multiplier+1
  7381     16F6  1C03               	skipc
  7382     16F7  03F1               	decf	i1___wmul@multiplier+1,f
  7383     16F8  0826               	movf	i1map@nuevo_min,w
  7384     16F9  0227               	subwf	i1map@nuevo_max,w
  7385     16FA  00F2               	movwf	i1___wmul@multiplicand
  7386     16FB  01F3               	clrf	i1___wmul@multiplicand+1
  7387     16FC  1C03               	skipc
  7388     16FD  03F3               	decf	i1___wmul@multiplicand+1,f
  7389     16FE  160A  118A  2674  160A  118A  	fcall	i1___wmul
  7390     1703  0871               	movf	?i1___wmul+1,w
  7391     1704  00F9               	movwf	i1___awdiv@dividend+1
  7392     1705  0870               	movf	?i1___wmul,w
  7393     1706  00F8               	movwf	i1___awdiv@dividend
  7394     1707  120A  158A  2005  160A  118A  	fcall	i1___awdiv
  7395     170C  0876               	movf	?i1___awdiv,w
  7396     170D  00FB               	movwf	??i1_map
  7397     170E  0877               	movf	?i1___awdiv+1,w
  7398     170F  00FC               	movwf	??i1_map+1
  7399     1710  1283               	bcf	3,5	;RP0=0, select bank0
  7400     1711  1303               	bcf	3,6	;RP1=0, select bank0
  7401     1712  0826               	movf	i1map@nuevo_min,w
  7402     1713  077B               	addwf	??i1_map,w
  7403     1714  00A9               	movwf	i1map@nuevo_valor
  7404     1715                     i1l2756:
  7405                           
  7406                           ;Proyecto_Micros.c: 576:     return nuevo_valor;
  7407     1715  0829               	movf	i1map@nuevo_valor,w
  7408     1716                     i1l312:
  7409     1716  0008               	return
  7410     1717                     __end_ofi1_map:
  7411                           
  7412                           	psect	text21
  7413     1674                     __ptext21:	
  7414 ;; *************** function i1___wmul *****************
  7415 ;; Defined at:
  7416 ;;		line 15 in file "C:\Program Files\Microchip\xc8\v2.40\pic\sources\c90\common\Umul16.c"
  7417 ;; Parameters:    Size  Location     Type
  7418 ;;  multiplier      2    0[COMMON] unsigned int 
  7419 ;;  multiplicand    2    2[COMMON] unsigned int 
  7420 ;; Auto vars:     Size  Location     Type
  7421 ;;  product         2    4[COMMON] unsigned int 
  7422 ;; Return value:  Size  Location     Type
  7423 ;;                  2    0[COMMON] unsigned int 
  7424 ;; Registers used:
  7425 ;;		wreg, status,2, status,0
  7426 ;; Tracked objects:
  7427 ;;		On entry : 0/0
  7428 ;;		On exit  : 0/0
  7429 ;;		Unchanged: 0/0
  7430 ;; Data sizes:     COMMON   BANK0   BANK1   BANK3   BANK2
  7431 ;;      Params:         4       0       0       0       0
  7432 ;;      Locals:         2       0       0       0       0
  7433 ;;      Temps:          0       0       0       0       0
  7434 ;;      Totals:         6       0       0       0       0
  7435 ;;Total ram usage:        6 bytes
  7436 ;; Hardware stack levels used: 1
  7437 ;; This function calls:
  7438 ;;		Nothing
  7439 ;; This function is called by:
  7440 ;;		i1_map
  7441 ;; This function uses a non-reentrant model
  7442 ;;
  7443                           
  7444     1674                     i1___wmul:	
  7445                           ;psect for function i1___wmul
  7446                           
  7447     1674                     i1l2478:	
  7448                           ;incstack = 0
  7449                           ; Regs used in i1___wmul: [wreg+status,2+status,0]
  7450                           
  7451     1674  01F4               	clrf	i1___wmul@product
  7452     1675  01F5               	clrf	i1___wmul@product+1
  7453     1676                     i1l2480:
  7454     1676  1C70               	btfss	i1___wmul@multiplier,0
  7455     1677  2E79               	goto	u296_21
  7456     1678  2E7A               	goto	u296_20
  7457     1679                     u296_21:
  7458     1679  2E80               	goto	i1l466
  7459     167A                     u296_20:
  7460     167A                     i1l2482:
  7461     167A  0872               	movf	i1___wmul@multiplicand,w
  7462     167B  07F4               	addwf	i1___wmul@product,f
  7463     167C  1803               	skipnc
  7464     167D  0AF5               	incf	i1___wmul@product+1,f
  7465     167E  0873               	movf	i1___wmul@multiplicand+1,w
  7466     167F  07F5               	addwf	i1___wmul@product+1,f
  7467     1680                     i1l466:
  7468     1680  3001               	movlw	1
  7469     1681                     u297_25:
  7470     1681  1003               	clrc
  7471     1682  0DF2               	rlf	i1___wmul@multiplicand,f
  7472     1683  0DF3               	rlf	i1___wmul@multiplicand+1,f
  7473     1684  3EFF               	addlw	-1
  7474     1685  1D03               	skipz
  7475     1686  2E81               	goto	u297_25
  7476     1687                     i1l2484:
  7477     1687  3001               	movlw	1
  7478     1688                     u298_25:
  7479     1688  1003               	clrc
  7480     1689  0CF1               	rrf	i1___wmul@multiplier+1,f
  7481     168A  0CF0               	rrf	i1___wmul@multiplier,f
  7482     168B  3EFF               	addlw	-1
  7483     168C  1D03               	skipz
  7484     168D  2E88               	goto	u298_25
  7485     168E                     i1l2486:
  7486     168E  0870               	movf	i1___wmul@multiplier,w
  7487     168F  0471               	iorwf	i1___wmul@multiplier+1,w
  7488     1690  1D03               	btfss	3,2
  7489     1691  2E93               	goto	u299_21
  7490     1692  2E94               	goto	u299_20
  7491     1693                     u299_21:
  7492     1693  2E76               	goto	i1l2480
  7493     1694                     u299_20:
  7494     1694                     i1l2488:
  7495     1694  0875               	movf	i1___wmul@product+1,w
  7496     1695  00F1               	movwf	?i1___wmul+1
  7497     1696  0874               	movf	i1___wmul@product,w
  7498     1697  00F0               	movwf	?i1___wmul
  7499     1698                     i1l468:
  7500     1698  0008               	return
  7501     1699                     __end_ofi1___wmul:
  7502                           
  7503                           	psect	text22
  7504     0805                     __ptext22:	
  7505 ;; *************** function i1___awdiv *****************
  7506 ;; Defined at:
  7507 ;;		line 5 in file "C:\Program Files\Microchip\xc8\v2.40\pic\sources\c90\common\awdiv.c"
  7508 ;; Parameters:    Size  Location     Type
  7509 ;;  divisor         2    6[COMMON] int 
  7510 ;;  dividend        2    8[COMMON] int 
  7511 ;; Auto vars:     Size  Location     Type
  7512 ;;  quotient        2    2[BANK0 ] int 
  7513 ;;  sign            1    1[BANK0 ] unsigned char 
  7514 ;;  counter         1    0[BANK0 ] unsigned char 
  7515 ;; Return value:  Size  Location     Type
  7516 ;;                  2    6[COMMON] int 
  7517 ;; Registers used:
  7518 ;;		wreg, status,2, status,0
  7519 ;; Tracked objects:
  7520 ;;		On entry : 0/0
  7521 ;;		On exit  : 0/0
  7522 ;;		Unchanged: 0/0
  7523 ;; Data sizes:     COMMON   BANK0   BANK1   BANK3   BANK2
  7524 ;;      Params:         4       0       0       0       0
  7525 ;;      Locals:         0       4       0       0       0
  7526 ;;      Temps:          1       0       0       0       0
  7527 ;;      Totals:         5       4       0       0       0
  7528 ;;Total ram usage:        9 bytes
  7529 ;; Hardware stack levels used: 1
  7530 ;; This function calls:
  7531 ;;		Nothing
  7532 ;; This function is called by:
  7533 ;;		i1_map
  7534 ;; This function uses a non-reentrant model
  7535 ;;
  7536                           
  7537     0805                     i1___awdiv:	
  7538                           ;psect for function i1___awdiv
  7539                           
  7540     0805                     i1l2492:	
  7541                           ;incstack = 0
  7542                           ; Regs used in i1___awdiv: [wreg+status,2+status,0]
  7543                           
  7544     0805  1283               	bcf	3,5	;RP0=0, select bank0
  7545     0806  1303               	bcf	3,6	;RP1=0, select bank0
  7546     0807  01A1               	clrf	i1___awdiv@sign
  7547     0808                     i1l2494:
  7548     0808  1FF7               	btfss	i1___awdiv@divisor+1,7
  7549     0809  280B               	goto	u300_21
  7550     080A  280C               	goto	u300_20
  7551     080B                     u300_21:
  7552     080B  2813               	goto	i1l2500
  7553     080C                     u300_20:
  7554     080C                     i1l2496:
  7555     080C  09F6               	comf	i1___awdiv@divisor,f
  7556     080D  09F7               	comf	i1___awdiv@divisor+1,f
  7557     080E  0AF6               	incf	i1___awdiv@divisor,f
  7558     080F  1903               	skipnz
  7559     0810  0AF7               	incf	i1___awdiv@divisor+1,f
  7560     0811                     i1l2498:
  7561     0811  01A1               	clrf	i1___awdiv@sign
  7562     0812  0AA1               	incf	i1___awdiv@sign,f
  7563     0813                     i1l2500:
  7564     0813  1FF9               	btfss	i1___awdiv@dividend+1,7
  7565     0814  2816               	goto	u301_21
  7566     0815  2817               	goto	u301_20
  7567     0816                     u301_21:
  7568     0816  2820               	goto	i1l2506
  7569     0817                     u301_20:
  7570     0817                     i1l2502:
  7571     0817  09F8               	comf	i1___awdiv@dividend,f
  7572     0818  09F9               	comf	i1___awdiv@dividend+1,f
  7573     0819  0AF8               	incf	i1___awdiv@dividend,f
  7574     081A  1903               	skipnz
  7575     081B  0AF9               	incf	i1___awdiv@dividend+1,f
  7576     081C                     i1l2504:
  7577     081C  3001               	movlw	1
  7578     081D  00FA               	movwf	??i1___awdiv
  7579     081E  087A               	movf	??i1___awdiv,w
  7580     081F  06A1               	xorwf	i1___awdiv@sign,f
  7581     0820                     i1l2506:
  7582     0820  01A2               	clrf	i1___awdiv@quotient
  7583     0821  01A3               	clrf	i1___awdiv@quotient+1
  7584     0822                     i1l2508:
  7585     0822  0876               	movf	i1___awdiv@divisor,w
  7586     0823  0477               	iorwf	i1___awdiv@divisor+1,w
  7587     0824  1903               	btfsc	3,2
  7588     0825  2827               	goto	u302_21
  7589     0826  2828               	goto	u302_20
  7590     0827                     u302_21:
  7591     0827  285F               	goto	i1l2528
  7592     0828                     u302_20:
  7593     0828                     i1l2510:
  7594     0828  01A0               	clrf	i1___awdiv@counter
  7595     0829  0AA0               	incf	i1___awdiv@counter,f
  7596     082A  2836               	goto	i1l2516
  7597     082B                     i1l2512:
  7598     082B  3001               	movlw	1
  7599     082C                     u303_25:
  7600     082C  1003               	clrc
  7601     082D  0DF6               	rlf	i1___awdiv@divisor,f
  7602     082E  0DF7               	rlf	i1___awdiv@divisor+1,f
  7603     082F  3EFF               	addlw	-1
  7604     0830  1D03               	skipz
  7605     0831  282C               	goto	u303_25
  7606     0832                     i1l2514:
  7607     0832  3001               	movlw	1
  7608     0833  00FA               	movwf	??i1___awdiv
  7609     0834  087A               	movf	??i1___awdiv,w
  7610     0835  07A0               	addwf	i1___awdiv@counter,f
  7611     0836                     i1l2516:
  7612     0836  1FF7               	btfss	i1___awdiv@divisor+1,7
  7613     0837  2839               	goto	u304_21
  7614     0838  283A               	goto	u304_20
  7615     0839                     u304_21:
  7616     0839  282B               	goto	i1l2512
  7617     083A                     u304_20:
  7618     083A                     i1l2518:
  7619     083A  3001               	movlw	1
  7620     083B                     u305_25:
  7621     083B  1003               	clrc
  7622     083C  0DA2               	rlf	i1___awdiv@quotient,f
  7623     083D  0DA3               	rlf	i1___awdiv@quotient+1,f
  7624     083E  3EFF               	addlw	-1
  7625     083F  1D03               	skipz
  7626     0840  283B               	goto	u305_25
  7627     0841  0877               	movf	i1___awdiv@divisor+1,w
  7628     0842  0279               	subwf	i1___awdiv@dividend+1,w
  7629     0843  1D03               	skipz
  7630     0844  2847               	goto	u306_25
  7631     0845  0876               	movf	i1___awdiv@divisor,w
  7632     0846  0278               	subwf	i1___awdiv@dividend,w
  7633     0847                     u306_25:
  7634     0847  1C03               	skipc
  7635     0848  284A               	goto	u306_21
  7636     0849  284B               	goto	u306_20
  7637     084A                     u306_21:
  7638     084A  2852               	goto	i1l2524
  7639     084B                     u306_20:
  7640     084B                     i1l2520:
  7641     084B  0876               	movf	i1___awdiv@divisor,w
  7642     084C  02F8               	subwf	i1___awdiv@dividend,f
  7643     084D  0877               	movf	i1___awdiv@divisor+1,w
  7644     084E  1C03               	skipc
  7645     084F  03F9               	decf	i1___awdiv@dividend+1,f
  7646     0850  02F9               	subwf	i1___awdiv@dividend+1,f
  7647     0851                     i1l2522:
  7648     0851  1422               	bsf	i1___awdiv@quotient,0
  7649     0852                     i1l2524:
  7650     0852  3001               	movlw	1
  7651     0853                     u307_25:
  7652     0853  1003               	clrc
  7653     0854  0CF7               	rrf	i1___awdiv@divisor+1,f
  7654     0855  0CF6               	rrf	i1___awdiv@divisor,f
  7655     0856  3EFF               	addlw	-1
  7656     0857  1D03               	skipz
  7657     0858  2853               	goto	u307_25
  7658     0859                     i1l2526:
  7659     0859  3001               	movlw	1
  7660     085A  02A0               	subwf	i1___awdiv@counter,f
  7661     085B  1D03               	btfss	3,2
  7662     085C  285E               	goto	u308_21
  7663     085D  285F               	goto	u308_20
  7664     085E                     u308_21:
  7665     085E  283A               	goto	i1l2518
  7666     085F                     u308_20:
  7667     085F                     i1l2528:
  7668     085F  0821               	movf	i1___awdiv@sign,w
  7669     0860  1903               	btfsc	3,2
  7670     0861  2863               	goto	u309_21
  7671     0862  2864               	goto	u309_20
  7672     0863                     u309_21:
  7673     0863  2869               	goto	i1l2532
  7674     0864                     u309_20:
  7675     0864                     i1l2530:
  7676     0864  09A2               	comf	i1___awdiv@quotient,f
  7677     0865  09A3               	comf	i1___awdiv@quotient+1,f
  7678     0866  0AA2               	incf	i1___awdiv@quotient,f
  7679     0867  1903               	skipnz
  7680     0868  0AA3               	incf	i1___awdiv@quotient+1,f
  7681     0869                     i1l2532:
  7682     0869  0823               	movf	i1___awdiv@quotient+1,w
  7683     086A  00F7               	movwf	?i1___awdiv+1
  7684     086B  0822               	movf	i1___awdiv@quotient,w
  7685     086C  00F6               	movwf	?i1___awdiv
  7686     086D                     i1l619:
  7687     086D  0008               	return
  7688     086E                     __end_ofi1___awdiv:
  7689                           
  7690                           	psect	text23
  7691     163E                     __ptext23:	
  7692 ;; *************** function _write_EEPROM *****************
  7693 ;; Defined at:
  7694 ;;		line 579 in file "Proyecto_Micros.c"
  7695 ;; Parameters:    Size  Location     Type
  7696 ;;  address         1    wreg     unsigned char 
  7697 ;;  data            1    0[COMMON] unsigned char 
  7698 ;; Auto vars:     Size  Location     Type
  7699 ;;  address         1    1[COMMON] unsigned char 
  7700 ;; Return value:  Size  Location     Type
  7701 ;;                  1    wreg      void 
  7702 ;; Registers used:
  7703 ;;		wreg
  7704 ;; Tracked objects:
  7705 ;;		On entry : 0/0
  7706 ;;		On exit  : 0/0
  7707 ;;		Unchanged: 0/0
  7708 ;; Data sizes:     COMMON   BANK0   BANK1   BANK3   BANK2
  7709 ;;      Params:         1       0       0       0       0
  7710 ;;      Locals:         1       0       0       0       0
  7711 ;;      Temps:          0       0       0       0       0
  7712 ;;      Totals:         2       0       0       0       0
  7713 ;;Total ram usage:        2 bytes
  7714 ;; Hardware stack levels used: 1
  7715 ;; This function calls:
  7716 ;;		Nothing
  7717 ;; This function is called by:
  7718 ;;		_isr
  7719 ;; This function uses a non-reentrant model
  7720 ;;
  7721                           
  7722     163E                     _write_EEPROM:	
  7723                           ;psect for function _write_EEPROM
  7724                           
  7725                           
  7726                           ;incstack = 0
  7727                           ; Regs used in _write_EEPROM: [wreg]
  7728                           ;write_EEPROM@address stored from wreg
  7729     163E  00F1               	movwf	write_EEPROM@address
  7730     163F                     i1l2548:
  7731     163F                     i1l315:	
  7732                           ;Proyecto_Micros.c: 580:     while (WR){;}
  7733                           
  7734     163F  1683               	bsf	3,5	;RP0=1, select bank3
  7735     1640  1703               	bsf	3,6	;RP1=1, select bank3
  7736     1641  188C               	btfsc	12,1	;volsfr
  7737     1642  2E44               	goto	u312_21
  7738     1643  2E45               	goto	u312_20
  7739     1644                     u312_21:
  7740     1644  2E3F               	goto	i1l315
  7741     1645                     u312_20:
  7742     1645                     i1l2550:
  7743                           
  7744                           ;Proyecto_Micros.c: 581:     EEADR = address;
  7745     1645  0871               	movf	write_EEPROM@address,w
  7746     1646  1283               	bcf	3,5	;RP0=0, select bank2
  7747     1647  1703               	bsf	3,6	;RP1=1, select bank2
  7748     1648  008D               	movwf	13	;volatile
  7749                           
  7750                           ;Proyecto_Micros.c: 582:     EEDAT = data;
  7751     1649  0870               	movf	write_EEPROM@data,w
  7752     164A  008C               	movwf	12	;volatile
  7753     164B                     i1l2552:
  7754                           
  7755                           ;Proyecto_Micros.c: 584:     EECON1bits.EEPGD = 0;
  7756     164B  1683               	bsf	3,5	;RP0=1, select bank3
  7757     164C  1703               	bsf	3,6	;RP1=1, select bank3
  7758     164D  138C               	bcf	12,7	;volsfr
  7759     164E                     i1l2554:
  7760                           
  7761                           ;Proyecto_Micros.c: 585:     EECON1bits.WREN = 1;
  7762     164E  150C               	bsf	12,2	;volsfr
  7763     164F                     i1l2556:
  7764                           
  7765                           ;Proyecto_Micros.c: 586:     INTCONbits.GIE = 0;
  7766     164F  138B               	bcf	11,7	;volatile
  7767                           
  7768                           ;Proyecto_Micros.c: 589:     EECON2 = 0x55;
  7769     1650  3055               	movlw	85
  7770     1651  008D               	movwf	13	;volsfr
  7771                           
  7772                           ;Proyecto_Micros.c: 590:     EECON2 = 0xAA;
  7773     1652  30AA               	movlw	170
  7774     1653  008D               	movwf	13	;volsfr
  7775     1654                     i1l2558:
  7776                           
  7777                           ;Proyecto_Micros.c: 591:     EECON1bits.WR = 1;
  7778     1654  148C               	bsf	12,1	;volsfr
  7779     1655                     i1l2560:
  7780                           
  7781                           ;Proyecto_Micros.c: 592:     EECON1bits.WREN = 0;
  7782     1655  110C               	bcf	12,2	;volsfr
  7783     1656                     i1l2562:
  7784                           
  7785                           ;Proyecto_Micros.c: 594:     INTCONbits.RBIF = 0;
  7786     1656  100B               	bcf	11,0	;volatile
  7787     1657                     i1l2564:
  7788                           
  7789                           ;Proyecto_Micros.c: 595:     INTCONbits.GIE = 1;
  7790     1657  178B               	bsf	11,7	;volatile
  7791     1658                     i1l318:
  7792     1658  0008               	return
  7793     1659                     __end_of_write_EEPROM:
  7794     007E                     btemp	set	126	;btemp
  7795     007E                     wtemp0	set	126
  7796                           
  7797                           	psect	idloc
  7798                           
  7799                           ;Config register IDLOC0 @ 0x2000
  7800                           ;	unspecified, using default values
  7801     2000                     	org	8192
  7802     2000  3FFF               	dw	16383
  7803                           
  7804                           ;Config register IDLOC1 @ 0x2001
  7805                           ;	unspecified, using default values
  7806     2001                     	org	8193
  7807     2001  3FFF               	dw	16383
  7808                           
  7809                           ;Config register IDLOC2 @ 0x2002
  7810                           ;	unspecified, using default values
  7811     2002                     	org	8194
  7812     2002  3FFF               	dw	16383
  7813                           
  7814                           ;Config register IDLOC3 @ 0x2003
  7815                           ;	unspecified, using default values
  7816     2003                     	org	8195
  7817     2003  3FFF               	dw	16383
  7818                           
  7819                           	psect	config
  7820                           
  7821                           ;Config register CONFIG1 @ 0x2007
  7822                           ;	Oscillator Selection bits
  7823                           ;	FOSC = INTRC_NOCLKOUT, INTOSCIO oscillator: I/O function on RA6/OSC2/CLKOUT pin, I/O f
      +                          unction on RA7/OSC1/CLKIN
  7824                           ;	Watchdog Timer Enable bit
  7825                           ;	WDTE = OFF, WDT disabled and can be enabled by SWDTEN bit of the WDTCON register
  7826                           ;	Power-up Timer Enable bit
  7827                           ;	PWRTE = OFF, PWRT disabled
  7828                           ;	RE3/MCLR pin function select bit
  7829                           ;	MCLRE = OFF, RE3/MCLR pin function is digital input, MCLR internally tied to VDD
  7830                           ;	Code Protection bit
  7831                           ;	CP = OFF, Program memory code protection is disabled
  7832                           ;	Data Code Protection bit
  7833                           ;	CPD = OFF, Data memory code protection is disabled
  7834                           ;	Brown Out Reset Selection bits
  7835                           ;	BOREN = OFF, BOR disabled
  7836                           ;	Internal External Switchover bit
  7837                           ;	IESO = OFF, Internal/External Switchover mode is disabled
  7838                           ;	Fail-Safe Clock Monitor Enabled bit
  7839                           ;	FCMEN = OFF, Fail-Safe Clock Monitor is disabled
  7840                           ;	Low Voltage Programming Enable bit
  7841                           ;	LVP = OFF, RB3 pin has digital I/O, HV on MCLR must be used for programming
  7842                           ;	In-Circuit Debugger Mode bit
  7843                           ;	DEBUG = 0x1, unprogramme  7844     2007                     	org	8199
  7845     2007  20D4               	dw	8404
  7846                           
  7847                           ;Config register CONFIG2 @ 0x2008
  7848                           ;	Brown-out Reset Selection bit
  7849                           ;	BOR4V = BOR40V, Brown-out Reset set to 4.0V
  7850                           ;	Flash Program Memory Self Write Enable bits
  7851                           ;	WRT = OFF, Write protection off
  7852     2008                     	org	8200
  7853     2008  3FFF               	dw	16383

Data Sizes:
    Strings     0
    Constant    0
    Data        4
    BSS         31
    Persistent  0
    Stack       0

Auto Spaces:
    Space          Size  Autos    Used
    COMMON           14     13      14
    BANK0            80     51      65
    BANK1            80     56      76
    BANK3            96      0       0
    BANK2            96      0       0

Pointer List with Targets:

    None.

Critical Paths under _main in COMMON

    None.

Critical Paths under _isr in COMMON

    _isr->i1_map
    i1_map->i1___awdiv
    i1___awdiv->i1___wmul

Critical Paths under _main in BANK0

    _modo_uart->_PWM_duty
    _modo_manual->_map
    _map->___awdiv
    ___awdiv->___wmul
    _modo_automatico->_PWM_duty
    _PWM_manual_config->___fltol
    _PWM_config->___fltol
    ___fltol->___flmul
    ___flmul->__Umul8_16
    ___fldiv->___flmul

Critical Paths under _isr in BANK0

    _isr->i1_map
    i1_map->i1___awdiv

Critical Paths under _main in BANK1

    _main->_PWM_manual_config
    _PWM_manual_config->___fltol
    _PWM_config->___fltol
    ___fltol->___fldiv

Critical Paths under _isr in BANK1

    None.

Critical Paths under _main in BANK3

    None.

Critical Paths under _isr in BANK3

    None.

Critical Paths under _main in BANK2

    None.

Critical Paths under _isr in BANK2

    None.

Call Graph Tables:

 ---------------------------------------------------------------------------------
 (Depth) Function   	        Calls       Base Space   Used Autos Params    Refs
 ---------------------------------------------------------------------------------
 (0) _main                                                 2     2      0   23512
                                             54 BANK1      2     2      0
                         _PWM_config
                  _PWM_manual_config
                           _initUART
                    _modo_automatico
                        _modo_manual
                          _modo_uart
                        _read_EEPROM
                              _setup
 ---------------------------------------------------------------------------------
 (1) _setup                                                0     0      0       0
 ---------------------------------------------------------------------------------
 (1) _read_EEPROM                                          1     1      0      22
                                             14 BANK0      1     1      0
 ---------------------------------------------------------------------------------
 (1) _modo_uart                                            2     2      0    2000
                                             20 BANK0      2     2      0
                           _PWM_duty
                         _PWM_manual
 ---------------------------------------------------------------------------------
 (1) _modo_manual                                          2     2      0    5689
                                             37 BANK0      2     2      0
                           _PWM_duty
                         _PWM_manual
                                _map
 ---------------------------------------------------------------------------------
 (2) _map                                                  8     4      4    3689
                                             29 BANK0      8     4      4
                            ___awdiv
                             ___wmul
 ---------------------------------------------------------------------------------
 (3) ___wmul                                               6     2      4     244
                                             14 BANK0      6     2      4
 ---------------------------------------------------------------------------------
 (3) ___awdiv                                              9     5      4     452
                                             20 BANK0      9     5      4
                             ___wmul (ARG)
 ---------------------------------------------------------------------------------
 (1) _modo_automatico                                      2     2      0    2000
                                             20 BANK0      2     2      0
                           _PWM_duty
                         _PWM_manual
 ---------------------------------------------------------------------------------
 (2) _PWM_manual                                           5     1      4     956
                                             14 BANK0      5     1      4
 ---------------------------------------------------------------------------------
 (2) _PWM_duty                                             6     2      4    1044
                                             14 BANK0      6     2      4
 ---------------------------------------------------------------------------------
 (1) _initUART                                             0     0      0       0
 ---------------------------------------------------------------------------------
 (1) _PWM_manual_config                                   20    16      4    6348
                                             34 BANK1     20    16      4
                            ___fldiv
                            ___flmul
                            ___fltol
 ---------------------------------------------------------------------------------
 (1) _PWM_config                                          12     6      6    7453
                                             34 BANK1     12     6      6
                            ___fldiv
                            ___flmul
                            ___fltol
 ---------------------------------------------------------------------------------
 (2) ___fltol                                             10     6      4     517
                                             49 BANK0      2     2      0
                                             26 BANK1      8     4      4
                            ___fldiv (ARG)
                            ___flmul (ARG)
 ---------------------------------------------------------------------------------
 (2) ___flmul                                             26    18      8    2721
                                             23 BANK0     26    18      8
                          __Umul8_16
 ---------------------------------------------------------------------------------
 (3) __Umul8_16                                            9     7      2     799
                                             14 BANK0      9     7      2
 ---------------------------------------------------------------------------------
 (2) ___fldiv                                             26    18      8    2583
                                              0 BANK1     26    18      8
                            ___flmul (ARG)
 ---------------------------------------------------------------------------------
 Estimated maximum stack depth 3
 ---------------------------------------------------------------------------------
 (Depth) Function   	        Calls       Base Space   Used Autos Params    Refs
 ---------------------------------------------------------------------------------
 (4) _isr                                                  4     4      0    1875
                                             10 BANK0      4     4      0
                       _write_EEPROM
                              i1_map
                      i1_read_EEPROM
 ---------------------------------------------------------------------------------
 (5) i1_read_EEPROM                                        1     1      0      22
                                              0 COMMON     1     1      0
 ---------------------------------------------------------------------------------
 (5) i1_map                                                8     4      4    1505
                                             11 COMMON     2     2      0
                                              4 BANK0      6     2      4
                          i1___awdiv
                           i1___wmul
 ---------------------------------------------------------------------------------
 (6) i1___wmul                                             6     2      4     144
                                              0 COMMON     6     2      4
 ---------------------------------------------------------------------------------
 (6) i1___awdiv                                            9     5      4     352
                                              6 COMMON     5     1      4
                                              0 BANK0      4     4      0
                           i1___wmul (ARG)
 ---------------------------------------------------------------------------------
 (5) _write_EEPROM                                         2     1      1     348
                                              0 COMMON     2     1      1
 ---------------------------------------------------------------------------------
 Estimated maximum stack depth 6
 ---------------------------------------------------------------------------------

 Call Graph Graphs:

 _main (ROOT)
   _PWM_config
     ___fldiv
       ___flmul (ARG)
         __Umul8_16
     ___flmul
     ___fltol
       ___fldiv (ARG)
       ___flmul (ARG)
   _PWM_manual_config
     ___fldiv
     ___flmul
     ___fltol
   _initUART
   _modo_automatico
     _PWM_duty
     _PWM_manual
   _modo_manual
     _PWM_duty
     _PWM_manual
     _map
       ___awdiv
         ___wmul (ARG)
       ___wmul
   _modo_uart
     _PWM_duty
     _PWM_manual
   _read_EEPROM
   _setup

 _isr (ROOT)
   _write_EEPROM
   i1_map
     i1___awdiv
       i1___wmul (ARG)
     i1___wmul
   i1_read_EEPROM

 Address spaces:
Name               Size   Autos  Total    Cost      Usage
BANK3               60      0       0       9        0.0%
BITBANK3            60      0       0       8        0.0%
SFR3                 0      0       0       4        0.0%
BITSFR3              0      0       0       4        0.0%
BANK2               60      0       0      11        0.0%
BITBANK2            60      0       0      10        0.0%
SFR2                 0      0       0       5        0.0%
BITSFR2              0      0       0       5        0.0%
BANK1               50     38      4C       7       95.0%
BITBANK1            50      0       0       6        0.0%
SFR1                 0      0       0       2        0.0%
BITSFR1              0      0       0       2        0.0%
BANK0               50     33      41       5       81.2%
BITBANK0            50      0       0       4        0.0%
SFR0                 0      0       0       1        0.0%
BITSFR0              0      0       0       1        0.0%
COMMON               E      D       E       1      100.0%
BITCOMMON            E      0       0       0        0.0%
CODE                 0      0       0       0        0.0%
DATA                 0      0      9B      12        0.0%
ABS                  0      0      9B       3        0.0%
NULL                 0      0       0       0        0.0%
STACK                0      0       0       2        0.0%
EEDATA             100      0       0       0        0.0%


Microchip Technology PIC Macro Assembler V2.40 build 20220703182018 
Symbol Table                                                                                   Wed May 24 23:22:38 2023

               ___fldiv@aexp 00B9                 ___fldiv@bexp 00B8                 ___fldiv@sign 00B1  
                         _RD 0C60                           _WR 0C61                 ___awdiv@sign 003A  
                         fsr 0004          ___wmul@multiplicand 0030             i1___wmul@product 0074  
               map@rango_max 003E                 map@rango_min 003D          __Umul8_16@word_mpld 0034  
                        l303 07FD                          l312 1746                          l321 165C  
                        l306 163D                          l324 1673                          l309 17B6  
                        l360 0A80                          l362 0A84                          l363 0A88  
                        l291 0A89                          l372 0C59                          l380 177A  
                        l284 08D7                          l288 094F                          l296 0B6B  
                        l369 17FF                          l466 16A7                          l619 08D6  
                        l299 070D                          l652 09DD                          l468 16BF  
                        l662 09DD                          l831 0DA2                          l815 0CB0  
                        l817 0E2C                          l659 09C6                          l837 0E14  
                        l861 067C                          l839 0E22                          l855 070C  
                        l874 16D6                          l867 0700                          l876 16E8  
                        _RB0 0030                          _RB1 0031                          _RB2 0032  
                        _RB3 0033                          _RB4 0034                          _PR2 0092  
       i1read_EEPROM@address 0070                          _map 1717                   _PWM_config 09DE  
                        _isr 003F                          indf 0000                   _PWM_manual 1747  
               ___flmul@aexp 0049                 ___flmul@bexp 004A       _PWM_manual_config$1145 00CA  
     _PWM_manual_config$1146 00CE       _PWM_manual_config$1147 00D2                 ___flmul@sign 0044  
               ___flmul@temp 004F                 ___flmul@prod 004B                 map@nuevo_max 0040  
               map@nuevo_min 003F                 ___fltol@exp1 0052                         l2100 08C2  
                       l2110 16C3                         l2102 08C8                         l2120 16E4  
                       l2112 16C5                         l2104 08CD                         l2114 16CC  
                       l2130 1747                         l2106 08D2                         l2116 16D0  
                       l2140 1773                         l2132 174B                         l2060 16B5  
                       l2052 1699                         l2124 171A                         l2118 16DF  
                       l2150 17DC                         l2142 17B7                         l2134 174F  
                       l2070 0875                         l2062 16BB                         l2054 169D  
                       l2126 1745                         l3200 0C9D                         l2400 04FA  
                       l2152 17E3                         l2144 17BF                         l2136 175E  
                       l2080 0889                         l2072 087A                         l2056 16A1  
                       l3210 0CC4                         l3202 0CA5                         l2410 0576  
                       l2402 0517                         l2154 17EF                         l2146 17CB  
                       l2138 175F                         l2090 089F                         l2082 088B  
                       l2074 087C                         l2066 086E                         l2058 16AE  
                       l3300 0E18                         l3212 0CC8                         l3204 0CA6  
                       l2420 0628                         l2412 05A1                         l2404 0525  
                       l2340 03CD                         l3140 097F                         l3132 0950  
                       l2156 17F2                         l2148 17CE                         l2092 08A3  
                       l2084 0891                         l2076 0880                         l2068 0871  
                       l3302 0E1C                         l3230 0D09                         l3222 0CDF  
                       l3206 0CA8                         l2430 064D                         l2422 0631  
                       l2414 05AF                         l2406 0542                         l2350 03E0  
                       l2342 03D1                         l3142 0982                         l3134 095D  
                       l3310 09DE                         l2094 08B4                         l2086 0894  
                       l2078 0885                         l3304 0E1E                         l3240 0D27  
                       l3232 0D0B                         l3224 0CF1                         l3208 0CB8  
                       l3216 0CD1                         l2440 0665                         l2432 0656  
                       l2424 063F                         l2416 05DA                         l2408 0559  
                       l2360 03FB                         l2352 03E8                         l2344 03D5  
                       l3144 098A                         l3320 0A73                         l3312 0A5C  
                       l2096 08BA                         l2088 089B                         l2600 179E  
                       l3400 0F12                         l3234 0D10                         l3242 0D30  
                       l3250 0D55                         l3226 0CF9                         l3218 0CD6  
                       l3170 0C5F                         l2450 0694                         l2442 0679  
                       l2426 0648                         l2434 065C                         l2418 0600  
                       l2370 0412                         l2362 03FF                         l2354 03EA  
                       l2346 03D6                         l2338 03C8                         l3162 09B7  
                       l3154 099A                         l3146 098E                         l3138 0968  
                       l3322 0A7B                         l3314 0A62                         l2098 08BB  
                       l2610 17B1                         l2602 17A2                         l3410 0F1F  
                       l3260 0D72                         l3252 0D5B                         l3244 0D42  
                       l3236 0D22                         l3228 0D01                         l3180 0C72  
                       l3172 0C63                         l2460 06CF                         l2452 0698  
                       l2436 0660                         l2428 064C                         l2372 0414  
                       l2364 0400                         l2356 03F2                         l2348 03DB  
                       l3164 09CB                         l3148 0992                         l3156 09B0  
                       l3324 0A7C                         l3316 0A6A                         l3340 0B79  
                       l3332 0B6C                         l2700 0B35                         l2540 1666  
                       l2612 17B2                         l2604 17A6                         l3420 0F38  
                       l3412 0F24                         l3270 0D87                         l3262 0D73  
                       l3254 0D63                         l3246 0D43                         l3238 0D26  
                       l3190 0C8A                         l3182 0C7A                         l3174 0C67  
                       l2470 06FA                         l2462 06DE                         l2454 06B1  
                       l2446 0681                         l2438 0661                         l2390 0481  
                       l2382 042F                         l2374 041C                         l2366 0405  
                       l2358 03F7                         l3166 09D0                         l3326 0A7E  
                       l3318 0A6C                         l3350 0C53                         l3342 0B7D  
                       l3334 0B6F                         l2710 162B                         l2702 0B64  
                       l2542 166C                         l2614 17B3                         l2606 17AC  
                       l3430 0F74                         l3422 0F3C                         l3414 0F28  
                       l3406 0F17                         l3280 0DAC                         l3272 0D8B  
                       l3264 0D7C                         l3256 0D65                         l3248 0D51  
                       l3192 0C8E                         l3184 0C7B                         l3176 0C68  
                       l3168 0C5A                         l2472 06FB                         l2464 06E8  
                       l2448 0686                         l2456 06B7                         l2392 04AB  
                       l2384 043D                         l2376 0421                         l2368 040A  
                       l3328 0A85                         l3352 0C54                         l3344 0B9C  
                       l3336 0B77                         l2720 1638                         l2712 162C  
                       l2544 166F                         l2536 165C                         l2608 17AE  
                       l3432 0F79                         l3424 0F4D                         l3416 0F2E  
                       l3408 0F1D                         l3440 0F81                         l3360 0E39  
                       l3290 0DEA                         l3282 0DBA                         l3274 0D9F  
                       l3258 0D6E                         l3266 0D82                         l3194 0C92  
                       l3178 0C6D                         l3186 0C7D                         l2474 0704  
                       l2466 06EA                         l2458 06C4                         l2394 04C7  
                       l2386 044A                         l2378 0426                         l3346 0BD7  
                       l3338 0B78                         l2722 163B                         l2714 162F  
                       l2706 1626                         l2730 0787                         l2538 1662  
                       l2570 1782                         l3450 0F93                         l3442 0F87  
                       l3434 0F7C                         l3426 0F60                         l3418 0F34  
                       l3370 0E94                         l3362 0E3B                         l3292 0DF8  
                       l3284 0DBE                         l3268 0D86                         l3196 0C93  
                       l3188 0C85                         l2468 06F6                         l2396 04E3  
                       l2388 0465                         l3348 0BF6                         l2724 163C  
                       l2716 1632                         l2708 162A                         l2740 07B6  
                       l2732 0788                         l2580 1789                         l2572 1783  
                       l3460 0FAB                         l3452 0F98                         l3444 0F89  
                       l3428 0F6F                         l3380 0EC2                         l3372 0EA7  
                       l3364 0E40                         l3356 0E2D                         l3294 0E07  
                       l3286 0DD7                         l3278 0DA7                         l3198 0C98  
                       l2398 04EC                         l2718 1635                         l2670 0908  
                       l2750 07F6                         l2742 07B9                         l2734 078C  
                       l2726 0710                         l2590 1799                         l2582 1790  
                       l2574 1784                         l2566 177B                         l3470 0FE6  
                       l3462 0FBC                         l3454 0F9C                         l3446 0F8E  
                       l3390 0ED3                         l3382 0EC5                         l3374 0EB6  
                       l3366 0E41                         l3358 0E32                         l3296 0E0B  
                       l3288 0DDD                         l2680 0944                         l2672 090B  
                       l2664 08DA                         l2744 07CE                         l2736 079B  
                       l2728 0784                         l2592 179A                         l2584 1792  
                       l2576 1787                         l2568 177E                         l3480 0FF4  
                       l3472 0FEA                         l3464 0FCF                         l3456 0FA1  
                       l3448 0F91                         l3392 0ED4                         l3376 0EBB  
                       l3368 0E83                         l3384 0EC7                         l3298 0E13  
                       l2682 0948                         l2674 0920                         l2666 08DE  
                       l2690 0B04                         l2746 07EF                         l2738 07B0  
                       l2594 179B                         l2586 1793                         l2578 1788  
                       l3474 0FED                         l3466 0FDE                         l3458 0FA7  
                       l3482 0FF7                         l3394 0F09                         l3386 0ECC  
                       l3378 0EBE                         l2676 0937                         l2668 08ED  
                       l2692 0B07                         l2748 07F2                         l2596 179C  
                       l2588 1796                         l3468 0FE3                         l3476 0FEE  
                       l3396 0F0E                         l3388 0ECE                         l2678 0941  
                       l2694 0B0B                         l2686 0A8F                         l2598 179D  
                       l3478 0FF3                         l3398 0F11                         ?_map 003D  
                       l2696 0B1A                         l2688 0A90                         l2698 0B2F  
                       _ADIF 0066                         ?_isr 0070                         _BRGH 04C2  
                       _CREN 00C4                         _T0IF 005A                         u2000 0875  
                       u2001 0874                         u2010 0880                         u2011 087F  
                       u2100 16D0                         u2020 0891                         u2101 16CF  
                       u2021 0890                         u2120 16E4                         u2040 08A3  
                       u2121 16E3                         u2041 08A2                         u2130 174F  
                       u2115 16D7                         u2131 174E                         u2035 0895  
                       u2140 1773                         u2060 08B4                         u3100 1662  
                       _IOCB 0096                         u2141 1772                         u2061 08B3  
                       u3101 1661                         u2150 17BF                         u3110 1666  
                       u2151 17BE                         u2055 08A4                         u3111 1665  
                       u4000 09CB                         u2080 08C8                         u4001 09CA  
                       u2145 176F                         u2081 08C7                         u2065 08B0  
                       u4010 09D0                         u2170 17E3                         u2090 08CD  
                       u4011 09CF                         u2171 17E2                         u2091 08CC  
                       u2075 08BC                         u4100 0D10                         u4020 0C67  
                       u4101 0D0F                         u4021 0C66                         u2165 17D1  
                       u4030 0C6D                         u4031 0C6C                         u4040 0C72  
                       u2600 03DB                         u3160 094F                         u4041 0C71  
                       u2601 03DA                         u2185 17F5                         u3161 094E  
                       u4210 0D86                         u4130 0D26                         u4050 0C92  
                       u2610 03E0                         u3170 0A8F                         u4211 0D85  
                       u4131 0D25                         u4115 0D12                         u4051 0C91  
                       u2611 03DF                         u3171 0A8E                         u4300 0E1C  
                       u4220 0D8B                         u4060 0C98                         u2620 03FF  
                       u3180 0B6B                         u4301 0E1B                         u4221 0D8A  
                       u4205 0D75                         u4125 0D1B                         u4061 0C97  
                       u2701 04D5                         u2621 03FE                         u3181 0B6A  
                       u4230 0D9F                         u4150 0D42                         u4070 0C9D  
                       u2702 04DC                         u2630 0405                         u4310 0A62  
                       u3190 07FD                         u4231 0D9E                         u4151 0D41  
                       u4071 0C9C                         u2703 04E3                         u2631 0404  
                       u4311 0A61                         u3191 07FC                         u4240 0DA6  
                       u4160 0D5B                         u4080 0CB8                         u2800 060E  
                       u2640 040A                         u4320 0A73                         u4400 0F87  
                       u4241 0DA5                         u4161 0D5A                         u4145 0D29  
                       u4081 0CB7                         u2721 0509                         u2641 0409  
                       u4321 0A72                         u4401 0F86                         u4250 0DAC  
                       u4170 0D63                         u4090 0CD6                         u2722 0510  
                       u2650 0421                         u4330 0A84                         u4410 0F8E  
                       u4251 0DAB                         u4171 0D62                         u4155 0D3E  
                       u4091 0CD5                         u2811 061A                         u2731 0534  
                       u2723 0517                         u2715 04E5                         u2651 0420  
                       u4331 0A83                         u4411 0F8D                         u4260 0DBE  
                       u2900 0686                         u2812 0621                         u2732 053B  
                       u2660 0426                         u4420 0FA1                         u4340 0E39  
                       u4261 0DBD                         u2901 0685                         u2813 0628  
                       u2805 0609                         u2733 0542                         u2661 0425  
                       u4421 0FA0                         u4341 0E38                         u4270 0DCD  
                       u4190 0D72                         u2910 0698                         u2590 03D5  
                       u4430 0FF3                         u4350 0E40                         u4191 0D71  
                       u2911 0697                         u2751 0568                         u2671 0473  
                       u2591 03D4                         u4431 0FF2                         u4351 0E3F  
                       u4280 0DEA                         u2920 06A7                         u2840 064C  
                       u2752 056F                         u2672 047A                         u1960 16A1  
                       u4440 0FFC                         u4360 0ECC                         u4281 0DE9  
                       u4185 0D67                         u2841 064B                         u2825 062A  
                       u2761 0593                         u2753 0576                         u2745 0544  
                       u2681 048F                         u2673 0481                         u1961 16A0  
                       u4441 0FFB                         u4361 0ECB                         u4290 0E07  
                       u2930 06C4                         u2762 059A                         u2682 0496  
                       u4370 0ED3                         u4291 0E06                         u4275 0DC8  
                       u2931 06C3                         u2835 0641                         u2771 05BE  
                       u2763 05A1                         u2691 04B9                         u2683 049D  
                       u4507 0762                         u4371 0ED2                         u2940 06DE  
                       u2860 0660                         u2780 05E6                         u2772 05C5  
                       u2692 04C0                         u4380 0F1D                         u4285 0DE6  
                       u2941 06DD                         u2925 06A2                         u2861 065F  
                       u2773 05CC                         u2693 04C7                         u4517 0772  
                       u4381 0F1C                         u2950 06FA                         u2870 0665  
                       u1990 16BB                         u4390 0F24                         u4295 0E03  
                       u2951 06F9                         u2935 06C0                         u2871 0664  
                       u2855 064F                         u2791 05F2                         u1991 16BA  
                       u1975 16A8                         u4527 0780                         u4391 0F23  
                       u2880 0679                         u2792 05F9                         u3920 095D  
                       _RBIF 0058                         u2945 06DA                         u2881 0678  
                       u2793 0600                         u2785 05E1                         u3921 095C  
                       u1985 16AF                         u4537 07EB                         u4457 0718  
                       u2890 0680                         u3930 0978                         u2891 067F  
                       u4547 093D                         u4467 0726                         u3940 0992  
                       _RCIF 0065                         u3941 0991                         u4477 0736  
                       u3950 0999                         u3951 0998                         u3935 0973  
                       u4487 0744                         u4497 0754                         u3970 09AF  
                       u3971 09AE                         u3980 09B6                         u3981 09B5  
                       u3965 099B                         u3995 09BB                         _TMR0 0001  
                       _SPEN 00C7                         _TXEN 04C5                         _TXIF 0064  
                       _SYNC 04C4                         _WPUB 0095                         _cont 00DA  
                       _main 0E2D                         btemp 007E      __end_of_modo_automatico 0950  
                       start 000E              ___fldiv@new_exp 00B2     _lectura_escritura_ENABLE 00EB  
               ?_read_EEPROM 0070                   i1map@valor 0028                        ??_map 0041  
                      ??_isr 002A                ___fltol@sign1 0051                        ?_main 0070  
             i1___awdiv@sign 0021              __end_of___fldiv 0E2D              __end_of___awdiv 08D7  
                      _EEADR 010D                        _EEDAT 010C                        _BRG16 0C3B  
            __end_of___flmul 070D              __end_of___fltol 09DE                        _ANSEL 0188  
            ___awdiv@divisor 0034                        _T2CON 0012                        i1l312 1716  
                      i1l240 02E4                        i1l321 1610                        i1l315 163F  
                      i1l235 03B7                        i1l324 1625                        i1l245 0316  
                      i1l318 1658                        i1l175 00B5                        i1l257 03BF  
             i1map@rango_max 0025                        i1l187 00FF               i1map@rango_min 0024  
                      i1l466 1680                        i1l619 086D                        i1l468 1698  
            ___awdiv@counter 0039                        _RCREG 001A                        _SPBRG 0099  
                      _PORTA 0005                        _PORTC 0007                        _PORTD 0008  
                      _PORTE 0009                        _TRISA 0085                        _TRISB 0086  
                      _TRISC 0087                        _TRISD 0088                        _TRISE 0089  
                      _TXREG 0019                        i1_map 16E9                        _adc00 00E8  
                      _adc01 00E6                        _adc10 00E2                        _adc11 00E4  
                      _setup 177B                        pclath 000A               i1map@nuevo_max 0027  
             i1map@nuevo_min 0026             __end_ofi1___wmul 1699             __end_of_PWM_duty 1800  
                      status 0003          i1___wmul@multiplier 0070                        wtemp0 007E  
             _activador_modo 005A              __initialization 0011                 ?_modo_manual 0070  
               __end_of_main 1000                       ??_main 00D6                  ?_PWM_config 00C2  
               _write_EEPROM 163E                       ?i1_map 0024                  ?_PWM_manual 002E  
             map@nuevo_valor 0044                       _ADRESH 001E                       _CCPR1L 0015  
                     _CCPR2L 001B                       _EECON2 018D             ___awdiv@dividend 0036  
                     ?_setup 0070                       _ANSELH 0189                       i1l3000 03B8  
                     i1l2500 0813                       i1l2510 0828                       i1l2502 0817  
                     i1l2520 084B                       i1l2512 082B                       i1l2504 081C  
                     i1l2530 0864                       i1l2522 0851                       i1l2514 0832  
                     i1l2506 0820                       i1l2532 0869                       i1l2524 0852  
                     i1l2516 0836                       i1l2508 0822                       i1l2550 1645  
                     i1l2526 0859                       i1l2518 083A                       i1l2560 1655  
                     i1l2552 164B                       i1l2528 085F                       i1l2480 1676  
                     i1l2800 00B6                       i1l2562 1656                       i1l2554 164E  
                     i1l2482 167A                       i1l2810 00C7                       i1l2802 00BA  
                     i1l2564 1657                       i1l2556 164F                       i1l2548 163F  
                     i1l2492 0805                       i1l2484 1687                       i1l2820 00E5  
                     i1l2812 00CE                       i1l2804 00C0                       i1l2558 1654  
                     i1l2494 0808                       i1l2486 168E                       i1l2478 1674  
                     i1l2910 0213                       i1l2902 0205                       i1l2830 0105  
                     i1l2822 00EB                       i1l2814 00D3                       i1l2806 00C5  
                     i1l2496 080C                       i1l2488 1694                       i1l2760 1610  
                     i1l2920 0252                       i1l2912 0215                       i1l2840 011A  
                     i1l2832 0108                       i1l2824 00F2                       i1l2816 00D8  
                     i1l2808 00C7                       i1l2498 0811                       i1l2754 16EC  
                     i1l2762 1616                       i1l2930 0297                       i1l2922 0258  
                     i1l2914 021A                       i1l2906 020C                       i1l2850 0133  
                     i1l2842 0120                       i1l2834 010E                       i1l2826 00F8  
                     i1l2818 00DE                       i1l2756 1715                       i1l2764 161A  
                     i1l2940 02AC                       i1l2924 0274                       i1l2916 0230  
                     i1l2908 0211                       i1l2860 0153                       i1l2852 0139  
                     i1l2844 0123                       i1l2836 0111                       i1l2828 0100  
                     i1l2932 0299                       i1l2780 0060                       i1l2772 003F  
                     i1l2766 161E                       i1l2950 02C1                       i1l2942 02B0  
                     i1l2934 029D                       i1l2926 027A                       i1l2918 0236  
                     i1l2870 0197                       i1l2854 0140                       i1l2846 0129  
                     i1l2862 015A                       i1l2838 0117                       i1l2790 0093  
                     i1l2782 0069                       i1l2774 0043                       u300_20 080C  
                     i1l2768 1621                       i1l2952 02C4                       i1l2960 02E4  
                     i1l2944 02B3                       i1l2936 02A1                       i1l2880 01E1  
                     i1l2872 019D                       i1l2864 015F                       i1l2856 0146  
                     i1l2848 012E                       i1l2928 0295                       i1l2792 009A  
                     i1l2784 0076                       i1l2776 004C                       u300_21 080B  
                     i1l2970 02FB                       i1l2962 02E9                       i1l2954 02C9  
                     i1l2946 02B7                       i1l2938 02AB                       i1l2890 01F1  
                     i1l2882 01E6                       i1l2874 01B9                       i1l2866 0175  
                     i1l2858 014D                       i1l2794 00A3                       i1l2786 007D  
                     i1l2778 0059                       i1l2980 0320                       i1l2972 0306  
                     i1l2964 02EE                       i1l2956 02D4                       i1l2948 02BC  
                     i1l2884 01E8                       i1l2876 01BF                       i1l2868 017B  
                     i1l2796 00B0                       i1l2788 0086                       i1l2990 03AB  
                     i1l2982 0325                       i1l2974 030B                       i1l2966 02F3  
                     i1l2958 02D9                       i1l2894 01F7                       i1l2886 01E8  
                     i1l2878 01DB                       i1l2798 00B5                       u301_20 0817  
                     i1l2992 03B1                       i1l2984 0374                       i1l2968 02F6  
                     i1l2976 0316                       i1l2888 01EF                       u301_21 0816  
                     i1l2986 0379                       i1l2978 031B                       i1l2898 01FE  
                     i1l2996 03B7                       i1l2988 037E                       u302_20 0828  
                     u302_21 0827                       u303_25 082C                       u312_20 1645  
                     u304_20 083A                       u320_20 1616                       u312_21 1644  
                     u304_21 0839                       u320_21 1615                       u321_20 161A  
                     u321_21 1619                       u305_25 083B                       u306_20 084B  
                     u330_20 00CE                       u322_20 0043                       u306_21 084A  
                     u330_21 00CD                       u322_21 0042                       u306_25 0847  
                     u331_20 00D3                       u323_20 004C                       u331_21 00D2  
                     u323_21 004B                       u307_25 0853                       u308_20 085F  
                     u340_20 012E                       u332_20 00DE                       u324_20 0069  
                     u308_21 085E                       u340_21 012D                       u332_21 00DD  
                     u324_21 0068                       u309_20 0864                       u341_20 0139  
                     u333_20 00EB                       u325_20 0086                       u309_21 0863  
                     u341_21 0138                       u333_21 00EA                       u325_21 0085  
                     u350_20 01EF                       u342_20 0146                       u334_20 00F8  
                     u326_20 00A3                       u350_21 01EE                       u342_21 0145  
                     u334_21 00F7                       u326_21 00A2                       u351_20 01F6  
                     u343_20 0153                       u335_20 0105                       u327_20 00BA  
                     u351_21 01F5                       u343_21 0152                       u335_21 0104  
                     u327_21 00B9                       u360_20 029D                       u352_20 01FD  
                     u344_20 015F                       u336_20 010E                       u328_20 00C0  
                     u360_21 029C                       u352_21 01FC                       u344_21 015E  
                     u336_21 010D                       u328_21 00BF                       u361_20 02A1  
                     u353_20 0204                       u345_20 017B                       u337_20 0117  
                     u329_20 00C5                       u361_21 02A0                       u353_21 0203  
                     u345_21 017A                       u337_21 0116                       u329_21 00C4  
                     u370_20 02EE                       u362_20 02AB                       u354_20 020B  
                     u346_20 019D                       u338_20 0120                       u370_21 02ED  
                     u362_21 02AA                       u354_21 020A                       u346_21 019C  
                     u338_21 011F                       u371_20 02F3                       u363_20 02B0  
                     u355_20 0211                       u347_20 01BF                       u339_20 0129  
                     u371_21 02F2                       u363_21 02AF                       u355_21 0210  
                     u347_21 01BE                       u339_21 0128                       u380_20 03B6  
                     u372_20 02FB                       u364_20 02B7                       u356_20 021A  
                     u348_20 01E1                       u380_21 03B5                       u372_21 02FA  
                     u364_21 02B6                       u356_21 0219                       u348_21 01E0  
                     u373_20 030B                       u365_20 02BC                       u357_20 0236  
                     u349_20 01E6                       u373_21 030A                       u365_21 02BB  
                     u357_21 0235                       u349_21 01E5                       u374_20 031B  
                     u366_20 02C1                       u358_20 0258                       u374_21 031A  
                     u366_21 02C0                       u358_21 0257                       u375_20 0320  
                     u367_20 02C9                       u359_20 027A                       u375_21 031F  
                     u367_21 02C8                       u359_21 0279                       u455_27 03BC  
                     u296_20 167A                       u376_20 0325                       u368_20 02D9  
                     u296_21 1679                       u376_21 0324                       u368_21 02D8  
                     u377_20 0379                       u369_20 02E9                       u377_21 0378  
                     u369_21 02E8                       u297_25 1681                       u378_20 037E  
                     u378_21 037D                       u298_25 1688                       u299_20 1694  
                     u379_20 03B1                       u299_21 1693                       u379_21 03B0  
                     _TMR2IF 0061                       _SPBRGH 009A        PWM_manual_config@TOSC 00C6  
           ?_modo_automatico 0070                       ___wmul 1699                    ??___fldiv 00A8  
                  ??___awdiv 0038                    ??___flmul 003F                    ??___fltol 00BE  
           __end_of_initUART 163E             ___awdiv@quotient 003B                       _status 005C  
          __end_ofi1___awdiv 086E                       saved_w 007E      __end_of__initialization 003B  
                 ___fltol@f1 00BA                __end_ofi1_map 1717               __pcstackCOMMON 0070  
               __pidataBANK0 0801                __end_of_setup 17B7                    ?i1___wmul 0070  
                  ?_PWM_duty 002E           read_EEPROM@address 002E               _OPTION_REGbits 0081  
                    ??i1_map 007B             write_EEPROM@data 0070                      ??_setup 002E  
                 __pbssBANK0 0053                   __pbssBANK1 00D8            __end_of__Umul8_16 16E9  
                 __pmaintext 0E2D                i1_read_EEPROM 160F                      ?___wmul 002E  
                 __pintentry 0004                      _CCP1CON 0017                      _CCP2CON 001D  
        _modo_funcionamiento 005B                   ??i1___wmul 0074                   ??_PWM_duty 0032  
         i1___awdiv@dividend 0078                    ?_initUART 0070            _val_potenciometro 007D  
         i1___awdiv@quotient 0022               ?i1_read_EEPROM 0070                      ___fldiv 0C5A  
                    ___awdiv 086E                      ___flmul 03C8                      ___fltol 0950  
                    __ptext1 177B                      __ptext2 1659                      __ptext3 070D  
                    __ptext4 0A89                      __ptext5 1717                      __ptext6 1699  
                    __ptext7 086E                      __ptext8 08D7                      __ptext9 1747  
               ??_PWM_config 0053                    _T2CONbits 0012                 ??_PWM_manual 0032  
                    _preload 00D8            __end_of_modo_uart 07FE                      clrloop0 1608  
       end_of_initialization 003B                   ??_initUART 002E          write_EEPROM@address 0071  
           i1map@nuevo_valor 0029                   _valorSLIDE 0056           __end_of_PWM_config 0A89  
                  _RCSTAbits 0018           __end_of_PWM_manual 177B        i1___wmul@multiplicand 0072  
                  i1___awdiv 0805                  ___fldiv@grs 00B4                  ___fldiv@rem 00AD  
PWM_manual_config@periodo_ms 00C2                  ___flmul@grs 0045              ??i1_read_EEPROM 0070  
           PWM_config@valPR2 00CC               __end_of___wmul 16C0          start_initialization 0011  
                __end_of_map 1747                  __end_of_isr 03C8                   ?i1___awdiv 0076  
              ??_read_EEPROM 002E                     ??___wmul 0032                    __Umul8_16 16C0  
                __pdataBANK0 005D               _valor_mapeado0 0053               _valor_mapeado1 00E0  
             _valor_mapeado2 00DE               _valor_mapeado3 00DC                    ___fldiv@a 00A0  
                  ___fldiv@b 00A4                    ___flmul@a 003B                    ___flmul@b 0037  
                __pbssCOMMON 007D                    ___latbits 0002                __pcstackBANK0 0020  
              __pcstackBANK1 00A0         PWM_manual@limite_pot 002E                ??_modo_manual 0045  
                   ?___fldiv 00A0                     ?___awdiv 0034                     ?___flmul 0037  
                   ?___fltol 00BA                   ?__Umul8_16 002E            i1___awdiv@divisor 0076  
        __end_of_read_EEPROM 1674            i1___awdiv@counter 0020                ?_write_EEPROM 0070  
          ??_modo_automatico 0034                  ??i1___awdiv 007A            interrupt_function 0004  
                  _modo_uart 070D               ___wmul@product 0032            _PWM_manual_config 0B6C  
                  clear_ram0 1607                     _PIE1bits 008C           ?_PWM_manual_config 00C2  
                  _valorDIAL 0057                     _PIR1bits 000C                PWM_duty@canal 002E  
        ??_PWM_manual_config 0053         PWM_config@periodo_ms 00C4                   _ADCON0bits 001F  
                 _ADCON1bits 009F            ___wmul@multiplier 002E          __end_of_modo_manual 0B6C  
                   i1___wmul 1674               ??_write_EEPROM 0071                     _PWM_duty 17B7  
            PWM_config@canal 00C2    __end_of_PWM_manual_config 0C5A            PWM_duty@DutyCycle 0030  
                 ?_modo_uart 0070                   _EECON1bits 018C                  _read_EEPROM 1659  
                ??__Umul8_16 0030                     _bandera1 0059                     _bandera2 0058  
                   _bandera3 00EA                     _address0 0060                     _address1 005F  
                   _address2 005E                     _address3 005D              _PWM_config$1144 00C8  
                   __ptext10 17B7                     __ptext11 1626                     __ptext20 16E9  
                   __ptext12 0B6C                     __ptext21 1674                     __ptext13 09DE  
                   __ptext22 0805                     __ptext14 0950                     __ptext23 163E  
                   __ptext15 03C8                     __ptext16 16C0                     __ptext17 0C5A  
                   __ptext18 003F                     __ptext19 160F                     _initUART 1626  
           PWM_manual@puerto 0030        __end_ofi1_read_EEPROM 1626                  _modo_manual 0A89  
                   map@valor 0043                   _INTCONbits 000B                  _selectSERVO 0055  
                   intlevel1 0000                  ??_modo_uart 0034         __end_of_write_EEPROM 1659  
                 _OSCCONbits 008F              _modo_automatico 08D7       __Umul8_16@multiplicand 002E  
       __Umul8_16@multiplier 0036            __Umul8_16@product 0032  
